Archive member included to satisfy reference by file (symbol)

/usr/lib/gcc/arm-none-eabi/13.2.1/../../../arm-none-eabi/lib/thumb/v7e-m+fp/hard/libc.a(libc_a-strlen.o)
                              ../lilybuzzer/_build/nrf_fprintf_format.o (strlen)
/usr/lib/gcc/arm-none-eabi/13.2.1/../../../arm-none-eabi/lib/thumb/v7e-m+fp/hard/libc.a(libc_a-memset.o)
                              /usr/lib/gcc/arm-none-eabi/13.2.1/../../../arm-none-eabi/lib/thumb/v7e-m+fp/hard/crt0.o (memset)
/usr/lib/gcc/arm-none-eabi/13.2.1/../../../arm-none-eabi/lib/thumb/v7e-m+fp/hard/libc.a(libc_a-impure.o)
                              ../lilybuzzer/_build/microbit_before_startup.o (_impure_ptr)
/usr/lib/gcc/arm-none-eabi/13.2.1/../../../arm-none-eabi/lib/thumb/v7e-m+fp/hard/libc.a(libc_a-setbuf.o)
                              ../lilybuzzer/_build/microbit_before_startup.o (setbuf)
/usr/lib/gcc/arm-none-eabi/13.2.1/../../../arm-none-eabi/lib/thumb/v7e-m+fp/hard/libc.a(libc_a-memcmp.o)
                              _build/nrf_serial_flash_params.o (memcmp)
/usr/lib/gcc/arm-none-eabi/13.2.1/../../../arm-none-eabi/lib/thumb/v7e-m+fp/hard/libc.a(libc_a-memcpy.o)
                              ../lilybuzzer/_build/app_scheduler.o (memcpy)
/usr/lib/gcc/arm-none-eabi/13.2.1/../../../arm-none-eabi/lib/thumb/v7e-m+fp/hard/libc.a(libc_a-init.o)
                              /usr/lib/gcc/arm-none-eabi/13.2.1/../../../arm-none-eabi/lib/thumb/v7e-m+fp/hard/crt0.o (__libc_init_array)
/usr/lib/gcc/arm-none-eabi/13.2.1/../../../arm-none-eabi/lib/thumb/v7e-m+fp/hard/libc.a(libc_a-findfp.o)
                              /usr/lib/gcc/arm-none-eabi/13.2.1/../../../arm-none-eabi/lib/thumb/v7e-m+fp/hard/libc.a(libc_a-impure.o) (__sf)
/usr/lib/gcc/arm-none-eabi/13.2.1/../../../arm-none-eabi/lib/thumb/v7e-m+fp/hard/libc.a(libc_a-exit.o)
                              /usr/lib/gcc/arm-none-eabi/13.2.1/../../../arm-none-eabi/lib/thumb/v7e-m+fp/hard/crt0.o (exit)
/usr/lib/gcc/arm-none-eabi/13.2.1/../../../arm-none-eabi/lib/thumb/v7e-m+fp/hard/libc.a(libc_a-ctype_.o)
                              ../lilybuzzer/_build/nrf_log_str_formatter.o (_ctype_)
/usr/lib/gcc/arm-none-eabi/13.2.1/../../../arm-none-eabi/lib/thumb/v7e-m+fp/hard/libc.a(libc_a-atexit.o)
                              /usr/lib/gcc/arm-none-eabi/13.2.1/../../../arm-none-eabi/lib/thumb/v7e-m+fp/hard/crt0.o (atexit)
/usr/lib/gcc/arm-none-eabi/13.2.1/../../../arm-none-eabi/lib/thumb/v7e-m+fp/hard/libc.a(libc_a-printf.o)
                              _build/main.o (printf)
/usr/lib/gcc/arm-none-eabi/13.2.1/../../../arm-none-eabi/lib/thumb/v7e-m+fp/hard/libc.a(libc_a-fini.o)
                              /usr/lib/gcc/arm-none-eabi/13.2.1/../../../arm-none-eabi/lib/thumb/v7e-m+fp/hard/crt0.o (__libc_fini_array)
/usr/lib/gcc/arm-none-eabi/13.2.1/../../../arm-none-eabi/lib/thumb/v7e-m+fp/hard/libc.a(libc_a-fwalk.o)
                              /usr/lib/gcc/arm-none-eabi/13.2.1/../../../arm-none-eabi/lib/thumb/v7e-m+fp/hard/libc.a(libc_a-findfp.o) (_fwalk_sglue)
/usr/lib/gcc/arm-none-eabi/13.2.1/../../../arm-none-eabi/lib/thumb/v7e-m+fp/hard/libc.a(libc_a-vfprintf.o)
                              /usr/lib/gcc/arm-none-eabi/13.2.1/../../../arm-none-eabi/lib/thumb/v7e-m+fp/hard/libc.a(libc_a-printf.o) (_vfprintf_r)
/usr/lib/gcc/arm-none-eabi/13.2.1/../../../arm-none-eabi/lib/thumb/v7e-m+fp/hard/libc.a(libc_a-memchr.o)
                              /usr/lib/gcc/arm-none-eabi/13.2.1/../../../arm-none-eabi/lib/thumb/v7e-m+fp/hard/libc.a(libc_a-vfprintf.o) (memchr)
/usr/lib/gcc/arm-none-eabi/13.2.1/../../../arm-none-eabi/lib/thumb/v7e-m+fp/hard/libc.a(libc_a-fflush.o)
                              /usr/lib/gcc/arm-none-eabi/13.2.1/../../../arm-none-eabi/lib/thumb/v7e-m+fp/hard/libc.a(libc_a-vfprintf.o) (_fflush_r)
/usr/lib/gcc/arm-none-eabi/13.2.1/../../../arm-none-eabi/lib/thumb/v7e-m+fp/hard/libc.a(libc_a-setvbuf.o)
                              /usr/lib/gcc/arm-none-eabi/13.2.1/../../../arm-none-eabi/lib/thumb/v7e-m+fp/hard/libc.a(libc_a-setbuf.o) (setvbuf)
/usr/lib/gcc/arm-none-eabi/13.2.1/../../../arm-none-eabi/lib/thumb/v7e-m+fp/hard/libc.a(libc_a-mallocr.o)
                              /usr/lib/gcc/arm-none-eabi/13.2.1/../../../arm-none-eabi/lib/thumb/v7e-m+fp/hard/libc.a(libc_a-findfp.o) (_malloc_r)
/usr/lib/gcc/arm-none-eabi/13.2.1/../../../arm-none-eabi/lib/thumb/v7e-m+fp/hard/libc.a(libc_a-dtoa.o)
                              /usr/lib/gcc/arm-none-eabi/13.2.1/../../../arm-none-eabi/lib/thumb/v7e-m+fp/hard/libc.a(libc_a-vfprintf.o) (_dtoa_r)
/usr/lib/gcc/arm-none-eabi/13.2.1/../../../arm-none-eabi/lib/thumb/v7e-m+fp/hard/libc.a(libc_a-wsetup.o)
                              /usr/lib/gcc/arm-none-eabi/13.2.1/../../../arm-none-eabi/lib/thumb/v7e-m+fp/hard/libc.a(libc_a-vfprintf.o) (__swsetup_r)
/usr/lib/gcc/arm-none-eabi/13.2.1/../../../arm-none-eabi/lib/thumb/v7e-m+fp/hard/libc.a(libc_a-freer.o)
                              /usr/lib/gcc/arm-none-eabi/13.2.1/../../../arm-none-eabi/lib/thumb/v7e-m+fp/hard/libc.a(libc_a-fflush.o) (_free_r)
/usr/lib/gcc/arm-none-eabi/13.2.1/../../../arm-none-eabi/lib/thumb/v7e-m+fp/hard/libc.a(libc_a-fclose.o)
                              /usr/lib/gcc/arm-none-eabi/13.2.1/../../../arm-none-eabi/lib/thumb/v7e-m+fp/hard/libc.a(libc_a-findfp.o) (_fclose_r)
/usr/lib/gcc/arm-none-eabi/13.2.1/../../../arm-none-eabi/lib/thumb/v7e-m+fp/hard/libc.a(libc_a-__call_atexit.o)
                              /usr/lib/gcc/arm-none-eabi/13.2.1/../../../arm-none-eabi/lib/thumb/v7e-m+fp/hard/libc.a(libc_a-exit.o) (__call_exitprocs)
/usr/lib/gcc/arm-none-eabi/13.2.1/../../../arm-none-eabi/lib/thumb/v7e-m+fp/hard/libc.a(libc_a-malloc.o)
                              /usr/lib/gcc/arm-none-eabi/13.2.1/../../../arm-none-eabi/lib/thumb/v7e-m+fp/hard/libc.a(libc_a-setvbuf.o) (malloc)
/usr/lib/gcc/arm-none-eabi/13.2.1/../../../arm-none-eabi/lib/thumb/v7e-m+fp/hard/libc.a(libc_a-sysconf.o)
                              /usr/lib/gcc/arm-none-eabi/13.2.1/../../../arm-none-eabi/lib/thumb/v7e-m+fp/hard/libc.a(libc_a-mallocr.o) (sysconf)
/usr/lib/gcc/arm-none-eabi/13.2.1/../../../arm-none-eabi/lib/thumb/v7e-m+fp/hard/libc.a(libc_a-stdio.o)
                              /usr/lib/gcc/arm-none-eabi/13.2.1/../../../arm-none-eabi/lib/thumb/v7e-m+fp/hard/libc.a(libc_a-findfp.o) (__sread)
/usr/lib/gcc/arm-none-eabi/13.2.1/../../../arm-none-eabi/lib/thumb/v7e-m+fp/hard/libc.a(libc_a-__atexit.o)
                              /usr/lib/gcc/arm-none-eabi/13.2.1/../../../arm-none-eabi/lib/thumb/v7e-m+fp/hard/libc.a(libc_a-atexit.o) (__register_exitproc)
/usr/lib/gcc/arm-none-eabi/13.2.1/../../../arm-none-eabi/lib/thumb/v7e-m+fp/hard/libc.a(libc_a-writer.o)
                              /usr/lib/gcc/arm-none-eabi/13.2.1/../../../arm-none-eabi/lib/thumb/v7e-m+fp/hard/libc.a(libc_a-stdio.o) (_write_r)
/usr/lib/gcc/arm-none-eabi/13.2.1/../../../arm-none-eabi/lib/thumb/v7e-m+fp/hard/libc.a(libc_a-mlock.o)
                              /usr/lib/gcc/arm-none-eabi/13.2.1/../../../arm-none-eabi/lib/thumb/v7e-m+fp/hard/libc.a(libc_a-mallocr.o) (__malloc_lock)
/usr/lib/gcc/arm-none-eabi/13.2.1/../../../arm-none-eabi/lib/thumb/v7e-m+fp/hard/libc.a(libc_a-sbrkr.o)
                              /usr/lib/gcc/arm-none-eabi/13.2.1/../../../arm-none-eabi/lib/thumb/v7e-m+fp/hard/libc.a(libc_a-mallocr.o) (_sbrk_r)
/usr/lib/gcc/arm-none-eabi/13.2.1/../../../arm-none-eabi/lib/thumb/v7e-m+fp/hard/libc.a(libc_a-closer.o)
                              /usr/lib/gcc/arm-none-eabi/13.2.1/../../../arm-none-eabi/lib/thumb/v7e-m+fp/hard/libc.a(libc_a-stdio.o) (_close_r)
/usr/lib/gcc/arm-none-eabi/13.2.1/../../../arm-none-eabi/lib/thumb/v7e-m+fp/hard/libc.a(libc_a-sprint_r.o)
                              /usr/lib/gcc/arm-none-eabi/13.2.1/../../../arm-none-eabi/lib/thumb/v7e-m+fp/hard/libc.a(libc_a-vfprintf.o) (__sprint_r)
/usr/lib/gcc/arm-none-eabi/13.2.1/../../../arm-none-eabi/lib/thumb/v7e-m+fp/hard/libc.a(libc_a-assert.o)
                              /usr/lib/gcc/arm-none-eabi/13.2.1/../../../arm-none-eabi/lib/thumb/v7e-m+fp/hard/libc.a(libc_a-dtoa.o) (__assert_func)
/usr/lib/gcc/arm-none-eabi/13.2.1/../../../arm-none-eabi/lib/thumb/v7e-m+fp/hard/libc.a(libc_a-mprec.o)
                              /usr/lib/gcc/arm-none-eabi/13.2.1/../../../arm-none-eabi/lib/thumb/v7e-m+fp/hard/libc.a(libc_a-dtoa.o) (_Balloc)
/usr/lib/gcc/arm-none-eabi/13.2.1/../../../arm-none-eabi/lib/thumb/v7e-m+fp/hard/libc.a(libc_a-localeconv.o)
                              /usr/lib/gcc/arm-none-eabi/13.2.1/../../../arm-none-eabi/lib/thumb/v7e-m+fp/hard/libc.a(libc_a-vfprintf.o) (_localeconv_r)
/usr/lib/gcc/arm-none-eabi/13.2.1/../../../arm-none-eabi/lib/thumb/v7e-m+fp/hard/libc.a(libc_a-makebuf.o)
                              /usr/lib/gcc/arm-none-eabi/13.2.1/../../../arm-none-eabi/lib/thumb/v7e-m+fp/hard/libc.a(libc_a-wsetup.o) (__smakebuf_r)
/usr/lib/gcc/arm-none-eabi/13.2.1/../../../arm-none-eabi/lib/thumb/v7e-m+fp/hard/libc.a(libc_a-locale.o)
                              /usr/lib/gcc/arm-none-eabi/13.2.1/../../../arm-none-eabi/lib/thumb/v7e-m+fp/hard/libc.a(libc_a-localeconv.o) (__global_locale)
/usr/lib/gcc/arm-none-eabi/13.2.1/../../../arm-none-eabi/lib/thumb/v7e-m+fp/hard/libc.a(libc_a-strcmp.o)
                              /usr/lib/gcc/arm-none-eabi/13.2.1/../../../arm-none-eabi/lib/thumb/v7e-m+fp/hard/libc.a(libc_a-locale.o) (strcmp)
/usr/lib/gcc/arm-none-eabi/13.2.1/../../../arm-none-eabi/lib/thumb/v7e-m+fp/hard/libc.a(libc_a-mbtowc_r.o)
                              /usr/lib/gcc/arm-none-eabi/13.2.1/../../../arm-none-eabi/lib/thumb/v7e-m+fp/hard/libc.a(libc_a-locale.o) (__ascii_mbtowc)
/usr/lib/gcc/arm-none-eabi/13.2.1/../../../arm-none-eabi/lib/thumb/v7e-m+fp/hard/libc.a(libc_a-errno.o)
                              /usr/lib/gcc/arm-none-eabi/13.2.1/../../../arm-none-eabi/lib/thumb/v7e-m+fp/hard/libc.a(libc_a-sysconf.o) (__errno)
/usr/lib/gcc/arm-none-eabi/13.2.1/../../../arm-none-eabi/lib/thumb/v7e-m+fp/hard/libc.a(libc_a-abort.o)
                              /usr/lib/gcc/arm-none-eabi/13.2.1/../../../arm-none-eabi/lib/thumb/v7e-m+fp/hard/libc.a(libc_a-assert.o) (abort)
/usr/lib/gcc/arm-none-eabi/13.2.1/../../../arm-none-eabi/lib/thumb/v7e-m+fp/hard/libc.a(libc_a-callocr.o)
                              /usr/lib/gcc/arm-none-eabi/13.2.1/../../../arm-none-eabi/lib/thumb/v7e-m+fp/hard/libc.a(libc_a-mprec.o) (_calloc_r)
/usr/lib/gcc/arm-none-eabi/13.2.1/../../../arm-none-eabi/lib/thumb/v7e-m+fp/hard/libc.a(libc_a-readr.o)
                              /usr/lib/gcc/arm-none-eabi/13.2.1/../../../arm-none-eabi/lib/thumb/v7e-m+fp/hard/libc.a(libc_a-stdio.o) (_read_r)
/usr/lib/gcc/arm-none-eabi/13.2.1/../../../arm-none-eabi/lib/thumb/v7e-m+fp/hard/libc.a(libc_a-fiprintf.o)
                              /usr/lib/gcc/arm-none-eabi/13.2.1/../../../arm-none-eabi/lib/thumb/v7e-m+fp/hard/libc.a(libc_a-assert.o) (fiprintf)
/usr/lib/gcc/arm-none-eabi/13.2.1/../../../arm-none-eabi/lib/thumb/v7e-m+fp/hard/libc.a(libc_a-wctomb_r.o)
                              /usr/lib/gcc/arm-none-eabi/13.2.1/../../../arm-none-eabi/lib/thumb/v7e-m+fp/hard/libc.a(libc_a-locale.o) (__ascii_wctomb)
/usr/lib/gcc/arm-none-eabi/13.2.1/../../../arm-none-eabi/lib/thumb/v7e-m+fp/hard/libc.a(libc_a-lseekr.o)
                              /usr/lib/gcc/arm-none-eabi/13.2.1/../../../arm-none-eabi/lib/thumb/v7e-m+fp/hard/libc.a(libc_a-stdio.o) (_lseek_r)
/usr/lib/gcc/arm-none-eabi/13.2.1/../../../arm-none-eabi/lib/thumb/v7e-m+fp/hard/libc.a(libc_a-reent.o)
                              /usr/lib/gcc/arm-none-eabi/13.2.1/../../../arm-none-eabi/lib/thumb/v7e-m+fp/hard/libc.a(libc_a-writer.o) (errno)
/usr/lib/gcc/arm-none-eabi/13.2.1/../../../arm-none-eabi/lib/thumb/v7e-m+fp/hard/libc.a(libc_a-fstatr.o)
                              /usr/lib/gcc/arm-none-eabi/13.2.1/../../../arm-none-eabi/lib/thumb/v7e-m+fp/hard/libc.a(libc_a-makebuf.o) (_fstat_r)
/usr/lib/gcc/arm-none-eabi/13.2.1/../../../arm-none-eabi/lib/thumb/v7e-m+fp/hard/libc.a(libc_a-isattyr.o)
                              /usr/lib/gcc/arm-none-eabi/13.2.1/../../../arm-none-eabi/lib/thumb/v7e-m+fp/hard/libc.a(libc_a-makebuf.o) (_isatty_r)
/usr/lib/gcc/arm-none-eabi/13.2.1/../../../arm-none-eabi/lib/thumb/v7e-m+fp/hard/libc.a(libc_a-fvwrite.o)
                              /usr/lib/gcc/arm-none-eabi/13.2.1/../../../arm-none-eabi/lib/thumb/v7e-m+fp/hard/libc.a(libc_a-sprint_r.o) (__sfvwrite_r)
/usr/lib/gcc/arm-none-eabi/13.2.1/../../../arm-none-eabi/lib/thumb/v7e-m+fp/hard/libc.a(libc_a-signal.o)
                              /usr/lib/gcc/arm-none-eabi/13.2.1/../../../arm-none-eabi/lib/thumb/v7e-m+fp/hard/libc.a(libc_a-abort.o) (raise)
/usr/lib/gcc/arm-none-eabi/13.2.1/../../../arm-none-eabi/lib/thumb/v7e-m+fp/hard/libc.a(libc_a-signalr.o)
                              /usr/lib/gcc/arm-none-eabi/13.2.1/../../../arm-none-eabi/lib/thumb/v7e-m+fp/hard/libc.a(libc_a-signal.o) (_kill_r)
/usr/lib/gcc/arm-none-eabi/13.2.1/../../../arm-none-eabi/lib/thumb/v7e-m+fp/hard/libc.a(libc_a-memmove.o)
                              /usr/lib/gcc/arm-none-eabi/13.2.1/../../../arm-none-eabi/lib/thumb/v7e-m+fp/hard/libc.a(libc_a-fvwrite.o) (memmove)
/usr/lib/gcc/arm-none-eabi/13.2.1/../../../arm-none-eabi/lib/thumb/v7e-m+fp/hard/libc.a(libc_a-vfiprintf.o)
                              /usr/lib/gcc/arm-none-eabi/13.2.1/../../../arm-none-eabi/lib/thumb/v7e-m+fp/hard/libc.a(libc_a-fiprintf.o) (_vfiprintf_r)
/usr/lib/gcc/arm-none-eabi/13.2.1/../../../arm-none-eabi/lib/thumb/v7e-m+fp/hard/libc.a(libc_a-reallocr.o)
                              /usr/lib/gcc/arm-none-eabi/13.2.1/../../../arm-none-eabi/lib/thumb/v7e-m+fp/hard/libc.a(libc_a-fvwrite.o) (_realloc_r)
/usr/lib/gcc/arm-none-eabi/13.2.1/../../../arm-none-eabi/lib/thumb/v7e-m+fp/hard/libnosys.a(close.o)
                              /usr/lib/gcc/arm-none-eabi/13.2.1/../../../arm-none-eabi/lib/thumb/v7e-m+fp/hard/libc.a(libc_a-closer.o) (_close)
/usr/lib/gcc/arm-none-eabi/13.2.1/../../../arm-none-eabi/lib/thumb/v7e-m+fp/hard/libnosys.a(fstat.o)
                              /usr/lib/gcc/arm-none-eabi/13.2.1/../../../arm-none-eabi/lib/thumb/v7e-m+fp/hard/libc.a(libc_a-fstatr.o) (_fstat)
/usr/lib/gcc/arm-none-eabi/13.2.1/../../../arm-none-eabi/lib/thumb/v7e-m+fp/hard/libnosys.a(getpid.o)
                              /usr/lib/gcc/arm-none-eabi/13.2.1/../../../arm-none-eabi/lib/thumb/v7e-m+fp/hard/libc.a(libc_a-signalr.o) (_getpid)
/usr/lib/gcc/arm-none-eabi/13.2.1/../../../arm-none-eabi/lib/thumb/v7e-m+fp/hard/libnosys.a(isatty.o)
                              /usr/lib/gcc/arm-none-eabi/13.2.1/../../../arm-none-eabi/lib/thumb/v7e-m+fp/hard/libc.a(libc_a-isattyr.o) (_isatty)
/usr/lib/gcc/arm-none-eabi/13.2.1/../../../arm-none-eabi/lib/thumb/v7e-m+fp/hard/libnosys.a(kill.o)
                              /usr/lib/gcc/arm-none-eabi/13.2.1/../../../arm-none-eabi/lib/thumb/v7e-m+fp/hard/libc.a(libc_a-signalr.o) (_kill)
/usr/lib/gcc/arm-none-eabi/13.2.1/../../../arm-none-eabi/lib/thumb/v7e-m+fp/hard/libnosys.a(lseek.o)
                              /usr/lib/gcc/arm-none-eabi/13.2.1/../../../arm-none-eabi/lib/thumb/v7e-m+fp/hard/libc.a(libc_a-lseekr.o) (_lseek)
/usr/lib/gcc/arm-none-eabi/13.2.1/../../../arm-none-eabi/lib/thumb/v7e-m+fp/hard/libnosys.a(sbrk.o)
                              /usr/lib/gcc/arm-none-eabi/13.2.1/../../../arm-none-eabi/lib/thumb/v7e-m+fp/hard/libc.a(libc_a-sbrkr.o) (_sbrk)
/usr/lib/gcc/arm-none-eabi/13.2.1/../../../arm-none-eabi/lib/thumb/v7e-m+fp/hard/libnosys.a(_exit.o)
                              /usr/lib/gcc/arm-none-eabi/13.2.1/../../../arm-none-eabi/lib/thumb/v7e-m+fp/hard/libc.a(libc_a-exit.o) (_exit)
/usr/lib/gcc/arm-none-eabi/13.2.1/thumb/v7e-m+fp/hard/libgcc.a(_arm_muldf3.o)
                              /usr/lib/gcc/arm-none-eabi/13.2.1/../../../arm-none-eabi/lib/thumb/v7e-m+fp/hard/libc.a(libc_a-dtoa.o) (__aeabi_dmul)
/usr/lib/gcc/arm-none-eabi/13.2.1/thumb/v7e-m+fp/hard/libgcc.a(_arm_addsubdf3.o)
                              /usr/lib/gcc/arm-none-eabi/13.2.1/../../../arm-none-eabi/lib/thumb/v7e-m+fp/hard/libc.a(libc_a-dtoa.o) (__aeabi_dsub)
/usr/lib/gcc/arm-none-eabi/13.2.1/thumb/v7e-m+fp/hard/libgcc.a(_arm_muldivdf3.o)
                              /usr/lib/gcc/arm-none-eabi/13.2.1/../../../arm-none-eabi/lib/thumb/v7e-m+fp/hard/libc.a(libc_a-dtoa.o) (__aeabi_ddiv)
/usr/lib/gcc/arm-none-eabi/13.2.1/thumb/v7e-m+fp/hard/libgcc.a(_arm_cmpdf2.o)
                              /usr/lib/gcc/arm-none-eabi/13.2.1/../../../arm-none-eabi/lib/thumb/v7e-m+fp/hard/libc.a(libc_a-vfprintf.o) (__aeabi_dcmpeq)
/usr/lib/gcc/arm-none-eabi/13.2.1/thumb/v7e-m+fp/hard/libgcc.a(_arm_unorddf2.o)
                              /usr/lib/gcc/arm-none-eabi/13.2.1/../../../arm-none-eabi/lib/thumb/v7e-m+fp/hard/libc.a(libc_a-vfprintf.o) (__aeabi_dcmpun)
/usr/lib/gcc/arm-none-eabi/13.2.1/thumb/v7e-m+fp/hard/libgcc.a(_arm_fixdfsi.o)
                              /usr/lib/gcc/arm-none-eabi/13.2.1/../../../arm-none-eabi/lib/thumb/v7e-m+fp/hard/libc.a(libc_a-dtoa.o) (__aeabi_d2iz)
/usr/lib/gcc/arm-none-eabi/13.2.1/thumb/v7e-m+fp/hard/libgcc.a(_aeabi_ldivmod.o)
                              ../lilybuzzer/_build/nrf_serial.o (__aeabi_ldivmod)
/usr/lib/gcc/arm-none-eabi/13.2.1/thumb/v7e-m+fp/hard/libgcc.a(_aeabi_uldivmod.o)
                              ../lilybuzzer/_build/nrf_serial.o (__aeabi_uldivmod)
/usr/lib/gcc/arm-none-eabi/13.2.1/thumb/v7e-m+fp/hard/libgcc.a(_udivmoddi4.o)
                              /usr/lib/gcc/arm-none-eabi/13.2.1/thumb/v7e-m+fp/hard/libgcc.a(_aeabi_ldivmod.o) (__udivmoddi4)
/usr/lib/gcc/arm-none-eabi/13.2.1/thumb/v7e-m+fp/hard/libgcc.a(_dvmd_tls.o)
                              /usr/lib/gcc/arm-none-eabi/13.2.1/thumb/v7e-m+fp/hard/libgcc.a(_aeabi_ldivmod.o) (__aeabi_ldiv0)

Discarded input sections

 .text          0x00000000        0x0 /usr/lib/gcc/arm-none-eabi/13.2.1/thumb/v7e-m+fp/hard/crti.o
 .data          0x00000000        0x0 /usr/lib/gcc/arm-none-eabi/13.2.1/thumb/v7e-m+fp/hard/crti.o
 .bss           0x00000000        0x0 /usr/lib/gcc/arm-none-eabi/13.2.1/thumb/v7e-m+fp/hard/crti.o
 .data          0x00000000        0x4 /usr/lib/gcc/arm-none-eabi/13.2.1/thumb/v7e-m+fp/hard/crtbegin.o
 .rodata        0x00000000       0x24 /usr/lib/gcc/arm-none-eabi/13.2.1/thumb/v7e-m+fp/hard/crtbegin.o
 .data          0x00000000        0x0 /usr/lib/gcc/arm-none-eabi/13.2.1/../../../arm-none-eabi/lib/thumb/v7e-m+fp/hard/crt0.o
 .bss           0x00000000        0x0 /usr/lib/gcc/arm-none-eabi/13.2.1/../../../arm-none-eabi/lib/thumb/v7e-m+fp/hard/crt0.o
 .ARM.extab     0x00000000        0x0 /usr/lib/gcc/arm-none-eabi/13.2.1/../../../arm-none-eabi/lib/thumb/v7e-m+fp/hard/crt0.o
 .text          0x00000000        0x0 _build/main.o
 .data          0x00000000        0x0 _build/main.o
 .bss           0x00000000        0x0 _build/main.o
 .text          0x00000000        0x0 _build/sx1509.o
 .data          0x00000000        0x0 _build/sx1509.o
 .bss           0x00000000        0x0 _build/sx1509.o
 .rodata.scan_i2c_bus.str1.1
                0x00000000       0x32 _build/sx1509.o
 .text.scan_i2c_bus
                0x00000000       0x5c _build/sx1509.o
 .text          0x00000000        0x0 _build/lilybuzzer.o
 .data          0x00000000        0x0 _build/lilybuzzer.o
 .bss           0x00000000        0x0 _build/lilybuzzer.o
 .text          0x00000000        0x0 _build/keypad.o
 .data          0x00000000        0x0 _build/keypad.o
 .bss           0x00000000        0x0 _build/keypad.o
 .rodata.print_keypad_input.str1.1
                0x00000000       0x27 _build/keypad.o
 .text.print_keypad_input
                0x00000000       0x44 _build/keypad.o
 .rodata.keypad_stop_scanning.str1.1
                0x00000000       0x17 _build/keypad.o
 .text.keypad_stop_scanning
                0x00000000       0x1c _build/keypad.o
 .rodata.col_pins
                0x00000000        0x3 _build/keypad.o
 .text          0x00000000        0x0 _build/nrf_block_dev_ram.o
 .data          0x00000000        0x0 _build/nrf_block_dev_ram.o
 .bss           0x00000000        0x0 _build/nrf_block_dev_ram.o
 .comment       0x00000000       0x27 _build/nrf_block_dev_ram.o
 .ARM.attributes
                0x00000000       0x34 _build/nrf_block_dev_ram.o
 .text          0x00000000        0x0 _build/nrf_block_dev_qspi.o
 .data          0x00000000        0x0 _build/nrf_block_dev_qspi.o
 .bss           0x00000000        0x0 _build/nrf_block_dev_qspi.o
 .comment       0x00000000       0x27 _build/nrf_block_dev_qspi.o
 .ARM.attributes
                0x00000000       0x34 _build/nrf_block_dev_qspi.o
 .text          0x00000000        0x0 _build/nrf_serial_flash_params.o
 .data          0x00000000        0x0 _build/nrf_serial_flash_params.o
 .bss           0x00000000        0x0 _build/nrf_serial_flash_params.o
 .text.nrf_serial_flash_params_get
                0x00000000       0x1c _build/nrf_serial_flash_params.o
 .rodata.m_sflash_params
                0x00000000       0x10 _build/nrf_serial_flash_params.o
 .comment       0x00000000       0x27 _build/nrf_serial_flash_params.o
 .ARM.attributes
                0x00000000       0x34 _build/nrf_serial_flash_params.o
 .text          0x00000000        0x0 ../lilybuzzer/_build/better_error_handling.o
 .data          0x00000000        0x0 ../lilybuzzer/_build/better_error_handling.o
 .bss           0x00000000        0x0 ../lilybuzzer/_build/better_error_handling.o
 .text.HardFault_process
                0x00000000        0x6 ../lilybuzzer/_build/better_error_handling.o
 .text          0x00000000        0x0 ../lilybuzzer/_build/microbit_before_startup.o
 .data          0x00000000        0x0 ../lilybuzzer/_build/microbit_before_startup.o
 .bss           0x00000000        0x0 ../lilybuzzer/_build/microbit_before_startup.o
 .text          0x00000000        0x0 ../lilybuzzer/_build/microbit_nrf_log_backend_uart.o
 .data          0x00000000        0x0 ../lilybuzzer/_build/microbit_nrf_log_backend_uart.o
 .bss           0x00000000        0x0 ../lilybuzzer/_build/microbit_nrf_log_backend_uart.o
 .text.uart_evt_handler
                0x00000000        0xc ../lilybuzzer/_build/microbit_nrf_log_backend_uart.o
 .text          0x00000000        0x0 ../lilybuzzer/_build/microbit_retarget.o
 .data          0x00000000        0x0 ../lilybuzzer/_build/microbit_retarget.o
 .bss           0x00000000        0x0 ../lilybuzzer/_build/microbit_retarget.o
 .text          0x00000000        0x0 ../lilybuzzer/_build/app_error_handler_gcc.o
 .data          0x00000000        0x0 ../lilybuzzer/_build/app_error_handler_gcc.o
 .bss           0x00000000        0x0 ../lilybuzzer/_build/app_error_handler_gcc.o
 .text          0x00000000        0x0 ../lilybuzzer/_build/app_fifo.o
 .data          0x00000000        0x0 ../lilybuzzer/_build/app_fifo.o
 .bss           0x00000000        0x0 ../lilybuzzer/_build/app_fifo.o
 .text.app_fifo_init
                0x00000000       0x22 ../lilybuzzer/_build/app_fifo.o
 .text.app_fifo_put
                0x00000000       0x24 ../lilybuzzer/_build/app_fifo.o
 .text.app_fifo_get
                0x00000000       0x22 ../lilybuzzer/_build/app_fifo.o
 .text.app_fifo_peek
                0x00000000       0x22 ../lilybuzzer/_build/app_fifo.o
 .text.app_fifo_flush
                0x00000000        0x8 ../lilybuzzer/_build/app_fifo.o
 .text.app_fifo_read
                0x00000000       0x46 ../lilybuzzer/_build/app_fifo.o
 .text.app_fifo_write
                0x00000000       0x4c ../lilybuzzer/_build/app_fifo.o
 .comment       0x00000000       0x27 ../lilybuzzer/_build/app_fifo.o
 .ARM.attributes
                0x00000000       0x34 ../lilybuzzer/_build/app_fifo.o
 .text          0x00000000        0x0 ../lilybuzzer/_build/app_scheduler.o
 .data          0x00000000        0x0 ../lilybuzzer/_build/app_scheduler.o
 .bss           0x00000000        0x0 ../lilybuzzer/_build/app_scheduler.o
 .text.app_sched_init
                0x00000000       0x48 ../lilybuzzer/_build/app_scheduler.o
 .text.app_sched_queue_space_get
                0x00000000       0x34 ../lilybuzzer/_build/app_scheduler.o
 .text.app_sched_event_put
                0x00000000       0xc4 ../lilybuzzer/_build/app_scheduler.o
 .text.app_sched_execute
                0x00000000       0x5c ../lilybuzzer/_build/app_scheduler.o
 .bss.m_queue_size
                0x00000000        0x2 ../lilybuzzer/_build/app_scheduler.o
 .bss.m_queue_event_size
                0x00000000        0x2 ../lilybuzzer/_build/app_scheduler.o
 .bss.m_queue_end_index
                0x00000000        0x1 ../lilybuzzer/_build/app_scheduler.o
 .bss.m_queue_start_index
                0x00000000        0x1 ../lilybuzzer/_build/app_scheduler.o
 .bss.m_queue_event_data
                0x00000000        0x4 ../lilybuzzer/_build/app_scheduler.o
 .bss.m_queue_event_headers
                0x00000000        0x4 ../lilybuzzer/_build/app_scheduler.o
 .comment       0x00000000       0x27 ../lilybuzzer/_build/app_scheduler.o
 .ARM.attributes
                0x00000000       0x34 ../lilybuzzer/_build/app_scheduler.o
 .text          0x00000000        0x0 ../lilybuzzer/_build/app_timer.o
 .data          0x00000000        0x0 ../lilybuzzer/_build/app_timer.o
 .bss           0x00000000        0x0 ../lilybuzzer/_build/app_timer.o
 .text.app_timer_stop_all
                0x00000000       0x18 ../lilybuzzer/_build/app_timer.o
 .text.app_timer_cnt_get
                0x00000000        0xc ../lilybuzzer/_build/app_timer.o
 .text.app_timer_cnt_diff_compute
                0x00000000        0x8 ../lilybuzzer/_build/app_timer.o
 .text.app_timer_pause
                0x00000000        0xc ../lilybuzzer/_build/app_timer.o
 .text.app_timer_resume
                0x00000000        0xc ../lilybuzzer/_build/app_timer.o
 .text          0x00000000        0x0 ../lilybuzzer/_build/app_uart_fifo.o
 .data          0x00000000        0x0 ../lilybuzzer/_build/app_uart_fifo.o
 .bss           0x00000000        0x0 ../lilybuzzer/_build/app_uart_fifo.o
 .text.nrf_drv_uart_rx.constprop.0
                0x00000000       0x28 ../lilybuzzer/_build/app_uart_fifo.o
 .text.nrf_drv_uart_tx.constprop.0
                0x00000000       0x28 ../lilybuzzer/_build/app_uart_fifo.o
 .text.uart_event_handler
                0x00000000       0xa4 ../lilybuzzer/_build/app_uart_fifo.o
 .text.app_uart_init
                0x00000000       0xb0 ../lilybuzzer/_build/app_uart_fifo.o
 .text.app_uart_flush
                0x00000000       0x20 ../lilybuzzer/_build/app_uart_fifo.o
 .rodata.app_uart_get.str1.1
                0x00000000       0x51 ../lilybuzzer/_build/app_uart_fifo.o
 .text.app_uart_get
                0x00000000       0x40 ../lilybuzzer/_build/app_uart_fifo.o
 .text.app_uart_put
                0x00000000       0x50 ../lilybuzzer/_build/app_uart_fifo.o
 .text.app_uart_close
                0x00000000       0x28 ../lilybuzzer/_build/app_uart_fifo.o
 .bss.m_tx_fifo
                0x00000000       0x10 ../lilybuzzer/_build/app_uart_fifo.o
 .bss.m_rx_fifo
                0x00000000       0x10 ../lilybuzzer/_build/app_uart_fifo.o
 .bss.m_rx_ovf  0x00000000        0x1 ../lilybuzzer/_build/app_uart_fifo.o
 .bss.rx_buffer
                0x00000000        0x1 ../lilybuzzer/_build/app_uart_fifo.o
 .bss.tx_buffer
                0x00000000        0x1 ../lilybuzzer/_build/app_uart_fifo.o
 .bss.m_event_handler
                0x00000000        0x4 ../lilybuzzer/_build/app_uart_fifo.o
 .data.app_uart_inst
                0x00000000       0x14 ../lilybuzzer/_build/app_uart_fifo.o
 .rodata        0x00000000       0x20 ../lilybuzzer/_build/app_uart_fifo.o
 .comment       0x00000000       0x27 ../lilybuzzer/_build/app_uart_fifo.o
 .ARM.attributes
                0x00000000       0x34 ../lilybuzzer/_build/app_uart_fifo.o
 .text          0x00000000        0x0 ../lilybuzzer/_build/app_util_platform.o
 .data          0x00000000        0x0 ../lilybuzzer/_build/app_util_platform.o
 .bss           0x00000000        0x0 ../lilybuzzer/_build/app_util_platform.o
 .text.current_int_priority_get
                0x00000000       0x38 ../lilybuzzer/_build/app_util_platform.o
 .text          0x00000000        0x0 ../lilybuzzer/_build/hardfault_handler_gcc.o
 .data          0x00000000        0x0 ../lilybuzzer/_build/hardfault_handler_gcc.o
 .bss           0x00000000        0x0 ../lilybuzzer/_build/hardfault_handler_gcc.o
 .text          0x00000000        0x0 ../lilybuzzer/_build/nrf_assert.o
 .data          0x00000000        0x0 ../lilybuzzer/_build/nrf_assert.o
 .bss           0x00000000        0x0 ../lilybuzzer/_build/nrf_assert.o
 .text          0x00000000        0x0 ../lilybuzzer/_build/nrf_atomic.o
 .data          0x00000000        0x0 ../lilybuzzer/_build/nrf_atomic.o
 .bss           0x00000000        0x0 ../lilybuzzer/_build/nrf_atomic.o
 .text.nrf_atomic_u32_store
                0x00000000       0x16 ../lilybuzzer/_build/nrf_atomic.o
 .text.nrf_atomic_u32_fetch_or
                0x00000000       0x18 ../lilybuzzer/_build/nrf_atomic.o
 .text.nrf_atomic_u32_and
                0x00000000       0x18 ../lilybuzzer/_build/nrf_atomic.o
 .text.nrf_atomic_u32_fetch_xor
                0x00000000       0x18 ../lilybuzzer/_build/nrf_atomic.o
 .text.nrf_atomic_u32_xor
                0x00000000       0x18 ../lilybuzzer/_build/nrf_atomic.o
 .text.nrf_atomic_u32_fetch_add
                0x00000000       0x18 ../lilybuzzer/_build/nrf_atomic.o
 .text.nrf_atomic_u32_fetch_sub
                0x00000000       0x18 ../lilybuzzer/_build/nrf_atomic.o
 .text.nrf_atomic_u32_cmp_exch
                0x00000000       0x2a ../lilybuzzer/_build/nrf_atomic.o
 .text.nrf_atomic_u32_fetch_sub_hs
                0x00000000       0x1c ../lilybuzzer/_build/nrf_atomic.o
 .text.nrf_atomic_u32_sub_hs
                0x00000000       0x1c ../lilybuzzer/_build/nrf_atomic.o
 .text.nrf_atomic_flag_set_fetch
                0x00000000        0x6 ../lilybuzzer/_build/nrf_atomic.o
 .text.nrf_atomic_flag_clear
                0x00000000        0x6 ../lilybuzzer/_build/nrf_atomic.o
 .text          0x00000000        0x0 ../lilybuzzer/_build/nrf_balloc.o
 .data          0x00000000        0x0 ../lilybuzzer/_build/nrf_balloc.o
 .bss           0x00000000        0x0 ../lilybuzzer/_build/nrf_balloc.o
 .text          0x00000000        0x0 ../lilybuzzer/_build/nrf_drv_clock.o
 .data          0x00000000        0x0 ../lilybuzzer/_build/nrf_drv_clock.o
 .bss           0x00000000        0x0 ../lilybuzzer/_build/nrf_drv_clock.o
 .text.clock_clk_started_notify
                0x00000000       0x24 ../lilybuzzer/_build/nrf_drv_clock.o
 .text.clock_irq_handler
                0x00000000       0x1c ../lilybuzzer/_build/nrf_drv_clock.o
 .text.nrf_drv_clock_init_check
                0x00000000        0xc ../lilybuzzer/_build/nrf_drv_clock.o
 .text.nrf_drv_clock_init
                0x00000000       0x30 ../lilybuzzer/_build/nrf_drv_clock.o
 .rodata.nrf_drv_clock_uninit.str1.1
                0x00000000       0x4f ../lilybuzzer/_build/nrf_drv_clock.o
 .text.nrf_drv_clock_uninit
                0x00000000       0x28 ../lilybuzzer/_build/nrf_drv_clock.o
 .text.nrf_drv_clock_lfclk_request
                0x00000000       0x74 ../lilybuzzer/_build/nrf_drv_clock.o
 .text.nrf_drv_clock_lfclk_release
                0x00000000       0x48 ../lilybuzzer/_build/nrf_drv_clock.o
 .text.nrf_drv_clock_lfclk_is_running
                0x00000000       0x28 ../lilybuzzer/_build/nrf_drv_clock.o
 .text.nrf_drv_clock_hfclk_request
                0x00000000       0x78 ../lilybuzzer/_build/nrf_drv_clock.o
 .text.nrf_drv_clock_hfclk_release
                0x00000000       0x48 ../lilybuzzer/_build/nrf_drv_clock.o
 .text.nrf_drv_clock_hfclk_is_running
                0x00000000       0x30 ../lilybuzzer/_build/nrf_drv_clock.o
 .text.nrf_drv_clock_calibration_start
                0x00000000        0x4 ../lilybuzzer/_build/nrf_drv_clock.o
 .text.nrf_drv_clock_calibration_abort
                0x00000000        0x4 ../lilybuzzer/_build/nrf_drv_clock.o
 .text.nrf_drv_clock_is_calibrating
                0x00000000        0x4 ../lilybuzzer/_build/nrf_drv_clock.o
 .bss.m_clock_cb
                0x00000000       0x14 ../lilybuzzer/_build/nrf_drv_clock.o
 .text          0x00000000        0x0 ../lilybuzzer/_build/nrf_drv_twi.o
 .data          0x00000000        0x0 ../lilybuzzer/_build/nrf_drv_twi.o
 .bss           0x00000000        0x0 ../lilybuzzer/_build/nrf_drv_twi.o
 .text          0x00000000        0x0 ../lilybuzzer/_build/nrf_drv_uart.o
 .data          0x00000000        0x0 ../lilybuzzer/_build/nrf_drv_uart.o
 .bss           0x00000000        0x0 ../lilybuzzer/_build/nrf_drv_uart.o
 .text          0x00000000        0x0 ../lilybuzzer/_build/nrf_fprintf.o
 .data          0x00000000        0x0 ../lilybuzzer/_build/nrf_fprintf.o
 .bss           0x00000000        0x0 ../lilybuzzer/_build/nrf_fprintf.o
 .text          0x00000000        0x0 ../lilybuzzer/_build/nrf_fprintf_format.o
 .data          0x00000000        0x0 ../lilybuzzer/_build/nrf_fprintf_format.o
 .bss           0x00000000        0x0 ../lilybuzzer/_build/nrf_fprintf_format.o
 .text          0x00000000        0x0 ../lilybuzzer/_build/nrf_log_backend_rtt.o
 .data          0x00000000        0x0 ../lilybuzzer/_build/nrf_log_backend_rtt.o
 .bss           0x00000000        0x0 ../lilybuzzer/_build/nrf_log_backend_rtt.o
 .comment       0x00000000       0x27 ../lilybuzzer/_build/nrf_log_backend_rtt.o
 .ARM.attributes
                0x00000000       0x34 ../lilybuzzer/_build/nrf_log_backend_rtt.o
 .text          0x00000000        0x0 ../lilybuzzer/_build/nrf_log_backend_serial.o
 .data          0x00000000        0x0 ../lilybuzzer/_build/nrf_log_backend_serial.o
 .bss           0x00000000        0x0 ../lilybuzzer/_build/nrf_log_backend_serial.o
 .text          0x00000000        0x0 ../lilybuzzer/_build/nrf_log_default_backends.o
 .data          0x00000000        0x0 ../lilybuzzer/_build/nrf_log_default_backends.o
 .bss           0x00000000        0x0 ../lilybuzzer/_build/nrf_log_default_backends.o
 .text          0x00000000        0x0 ../lilybuzzer/_build/nrf_log_frontend.o
 .data          0x00000000        0x0 ../lilybuzzer/_build/nrf_log_frontend.o
 .bss           0x00000000        0x0 ../lilybuzzer/_build/nrf_log_frontend.o
 .text.nrf_log_module_cnt_get
                0x00000000       0x14 ../lilybuzzer/_build/nrf_log_frontend.o
 .text.nrf_log_module_filter_set
                0x00000000        0x2 ../lilybuzzer/_build/nrf_log_frontend.o
 .text.nrf_log_module_filter_get
                0x00000000       0x3c ../lilybuzzer/_build/nrf_log_frontend.o
 .text.nrf_log_push
                0x00000000       0x7c ../lilybuzzer/_build/nrf_log_frontend.o
 .text.nrf_log_frontend_std_2
                0x00000000       0x14 ../lilybuzzer/_build/nrf_log_frontend.o
 .text.nrf_log_frontend_std_5
                0x00000000       0x20 ../lilybuzzer/_build/nrf_log_frontend.o
 .text.nrf_log_frontend_std_6
                0x00000000       0x24 ../lilybuzzer/_build/nrf_log_frontend.o
 .text.nrf_log_frontend_hexdump
                0x00000000       0xbc ../lilybuzzer/_build/nrf_log_frontend.o
 .text.nrf_log_backend_remove
                0x00000000       0x34 ../lilybuzzer/_build/nrf_log_frontend.o
 .text          0x00000000        0x0 ../lilybuzzer/_build/nrf_log_str_formatter.o
 .data          0x00000000        0x0 ../lilybuzzer/_build/nrf_log_str_formatter.o
 .bss           0x00000000        0x0 ../lilybuzzer/_build/nrf_log_str_formatter.o
 .text.nrf_log_str_formatter_timestamp_freq_set
                0x00000000       0x24 ../lilybuzzer/_build/nrf_log_str_formatter.o
 .bss.m_timestamp_div
                0x00000000        0x4 ../lilybuzzer/_build/nrf_log_str_formatter.o
 .text          0x00000000        0x0 ../lilybuzzer/_build/nrf_memobj.o
 .data          0x00000000        0x0 ../lilybuzzer/_build/nrf_memobj.o
 .bss           0x00000000        0x0 ../lilybuzzer/_build/nrf_memobj.o
 .text          0x00000000        0x0 ../lilybuzzer/_build/nrf_nvmc.o
 .data          0x00000000        0x0 ../lilybuzzer/_build/nrf_nvmc.o
 .bss           0x00000000        0x0 ../lilybuzzer/_build/nrf_nvmc.o
 .text.wait_for_flash_ready
                0x00000000       0x10 ../lilybuzzer/_build/nrf_nvmc.o
 .text.nrf_nvmc_page_erase
                0x00000000       0x30 ../lilybuzzer/_build/nrf_nvmc.o
 .text.nrf_nvmc_write_byte
                0x00000000       0x44 ../lilybuzzer/_build/nrf_nvmc.o
 .text.nrf_nvmc_write_word
                0x00000000       0x2c ../lilybuzzer/_build/nrf_nvmc.o
 .text.nrf_nvmc_write_bytes
                0x00000000       0x1a ../lilybuzzer/_build/nrf_nvmc.o
 .text.nrf_nvmc_write_words
                0x00000000       0x40 ../lilybuzzer/_build/nrf_nvmc.o
 .comment       0x00000000       0x27 ../lilybuzzer/_build/nrf_nvmc.o
 .ARM.attributes
                0x00000000       0x34 ../lilybuzzer/_build/nrf_nvmc.o
 .text          0x00000000        0x0 ../lilybuzzer/_build/nrf_pwr_mgmt.o
 .data          0x00000000        0x0 ../lilybuzzer/_build/nrf_pwr_mgmt.o
 .bss           0x00000000        0x0 ../lilybuzzer/_build/nrf_pwr_mgmt.o
 .text.nrf_pwr_mgmt_init
                0x00000000       0x2c ../lilybuzzer/_build/nrf_pwr_mgmt.o
 .rodata.nrf_pwr_mgmt_run.str1.1
                0x00000000       0x54 ../lilybuzzer/_build/nrf_pwr_mgmt.o
 .text.nrf_pwr_mgmt_run
                0x00000000       0x44 ../lilybuzzer/_build/nrf_pwr_mgmt.o
 .text.nrf_pwr_mgmt_feed
                0x00000000        0x2 ../lilybuzzer/_build/nrf_pwr_mgmt.o
 .rodata.nrf_pwr_mgmt_shutdown.str1.1
                0x00000000       0x4c ../lilybuzzer/_build/nrf_pwr_mgmt.o
 .text.nrf_pwr_mgmt_shutdown
                0x00000000       0xcc ../lilybuzzer/_build/nrf_pwr_mgmt.o
 .bss.m_handlers_iter
                0x00000000        0x8 ../lilybuzzer/_build/nrf_pwr_mgmt.o
 .bss.m_shutdown_started
                0x00000000        0x1 ../lilybuzzer/_build/nrf_pwr_mgmt.o
 .bss.m_sysoff_mtx
                0x00000000        0x4 ../lilybuzzer/_build/nrf_pwr_mgmt.o
 .bss.m_pwr_mgmt_evt
                0x00000000        0x1 ../lilybuzzer/_build/nrf_pwr_mgmt.o
 .rodata.pwr_mgmt_data
                0x00000000        0xc ../lilybuzzer/_build/nrf_pwr_mgmt.o
 .text          0x00000000        0x0 ../lilybuzzer/_build/nrf_queue.o
 .data          0x00000000        0x0 ../lilybuzzer/_build/nrf_queue.o
 .bss           0x00000000        0x0 ../lilybuzzer/_build/nrf_queue.o
 .text.queue_read
                0x00000000       0x64 ../lilybuzzer/_build/nrf_queue.o
 .text.nrf_queue_read
                0x00000000       0x50 ../lilybuzzer/_build/nrf_queue.o
 .text.nrf_queue_out
                0x00000000       0x4c ../lilybuzzer/_build/nrf_queue.o
 .text.nrf_queue_reset
                0x00000000       0x30 ../lilybuzzer/_build/nrf_queue.o
 .text.nrf_queue_utilization_get
                0x00000000       0x2c ../lilybuzzer/_build/nrf_queue.o
 .text.nrf_queue_available_get
                0x00000000       0x20 ../lilybuzzer/_build/nrf_queue.o
 .text.queue_write
                0x00000000       0x90 ../lilybuzzer/_build/nrf_queue.o
 .text.nrf_queue_write
                0x00000000       0x68 ../lilybuzzer/_build/nrf_queue.o
 .text.nrf_queue_in
                0x00000000       0x5c ../lilybuzzer/_build/nrf_queue.o
 .text.nrf_queue_max_utilization_get
                0x00000000       0x1c ../lilybuzzer/_build/nrf_queue.o
 .text.nrf_queue_max_utilization_reset
                0x00000000       0x1c ../lilybuzzer/_build/nrf_queue.o
 .text          0x00000000        0x0 ../lilybuzzer/_build/nrf_ringbuf.o
 .data          0x00000000        0x0 ../lilybuzzer/_build/nrf_ringbuf.o
 .bss           0x00000000        0x0 ../lilybuzzer/_build/nrf_ringbuf.o
 .rodata.nrf_ringbuf_alloc.str1.1
                0x00000000       0x52 ../lilybuzzer/_build/nrf_ringbuf.o
 .text.nrf_ringbuf_alloc
                0x00000000       0x84 ../lilybuzzer/_build/nrf_ringbuf.o
 .text.nrf_ringbuf_put
                0x00000000       0x32 ../lilybuzzer/_build/nrf_ringbuf.o
 .text.nrf_ringbuf_cpy_put
                0x00000000       0xa0 ../lilybuzzer/_build/nrf_ringbuf.o
 .text.nrf_ringbuf_get
                0x00000000       0x80 ../lilybuzzer/_build/nrf_ringbuf.o
 .text.nrf_ringbuf_cpy_get
                0x00000000       0xa4 ../lilybuzzer/_build/nrf_ringbuf.o
 .text.nrf_ringbuf_free
                0x00000000       0x28 ../lilybuzzer/_build/nrf_ringbuf.o
 .text          0x00000000        0x0 ../lilybuzzer/_build/nrf_sdh.o
 .data          0x00000000        0x0 ../lilybuzzer/_build/nrf_sdh.o
 .bss           0x00000000        0x0 ../lilybuzzer/_build/nrf_sdh.o
 .comment       0x00000000       0x27 ../lilybuzzer/_build/nrf_sdh.o
 .ARM.attributes
                0x00000000       0x34 ../lilybuzzer/_build/nrf_sdh.o
 .text          0x00000000        0x0 ../lilybuzzer/_build/nrf_section_iter.o
 .data          0x00000000        0x0 ../lilybuzzer/_build/nrf_section_iter.o
 .bss           0x00000000        0x0 ../lilybuzzer/_build/nrf_section_iter.o
 .rodata.nrf_section_iter_init.str1.1
                0x00000000       0x69 ../lilybuzzer/_build/nrf_section_iter.o
 .text.nrf_section_iter_init
                0x00000000       0x30 ../lilybuzzer/_build/nrf_section_iter.o
 .text.nrf_section_iter_next
                0x00000000       0x38 ../lilybuzzer/_build/nrf_section_iter.o
 .comment       0x00000000       0x27 ../lilybuzzer/_build/nrf_section_iter.o
 .ARM.attributes
                0x00000000       0x34 ../lilybuzzer/_build/nrf_section_iter.o
 .text          0x00000000        0x0 ../lilybuzzer/_build/nrf_serial.o
 .data          0x00000000        0x0 ../lilybuzzer/_build/nrf_serial.o
 .bss           0x00000000        0x0 ../lilybuzzer/_build/nrf_serial.o
 .text.event_handler
                0x00000000        0xc ../lilybuzzer/_build/nrf_serial.o
 .text.serial_timeout_handler
                0x00000000        0x6 ../lilybuzzer/_build/nrf_serial.o
 .rodata.nrf_mtx_unlock.str1.1
                0x00000000       0x4c ../lilybuzzer/_build/nrf_serial.o
 .text.nrf_mtx_unlock
                0x00000000       0x20 ../lilybuzzer/_build/nrf_serial.o
 .text.nrf_drv_uart_tx
                0x00000000       0x24 ../lilybuzzer/_build/nrf_serial.o
 .text.nrf_drv_uart_rx
                0x00000000       0x24 ../lilybuzzer/_build/nrf_serial.o
 .rodata.uart_event_handler.str1.1
                0x00000000       0x50 ../lilybuzzer/_build/nrf_serial.o
 .text.uart_event_handler
                0x00000000       0x9c ../lilybuzzer/_build/nrf_serial.o
 .text.nrf_mtx_trylock
                0x00000000       0x14 ../lilybuzzer/_build/nrf_serial.o
 .text.nrf_drv_uart_tx_in_progress
                0x00000000       0x18 ../lilybuzzer/_build/nrf_serial.o
 .text.serial_rx
                0x00000000       0x74 ../lilybuzzer/_build/nrf_serial.o
 .text.timeout_setup.constprop.0
                0x00000000       0x4c ../lilybuzzer/_build/nrf_serial.o
 .text.sleep_handler.isra.0
                0x00000000        0xe ../lilybuzzer/_build/nrf_serial.o
 .rodata.nrf_serial_init.str1.1
                0x00000000       0x4e ../lilybuzzer/_build/nrf_serial.o
 .text.nrf_serial_init
                0x00000000      0x118 ../lilybuzzer/_build/nrf_serial.o
 .text.nrf_serial_uninit
                0x00000000       0x80 ../lilybuzzer/_build/nrf_serial.o
 .text.nrf_serial_write
                0x00000000      0x160 ../lilybuzzer/_build/nrf_serial.o
 .text.nrf_serial_read
                0x00000000       0xf8 ../lilybuzzer/_build/nrf_serial.o
 .text.nrf_serial_flush
                0x00000000       0xc0 ../lilybuzzer/_build/nrf_serial.o
 .text.nrf_serial_tx_abort
                0x00000000       0x6c ../lilybuzzer/_build/nrf_serial.o
 .text.nrf_serial_rx_drain
                0x00000000       0x64 ../lilybuzzer/_build/nrf_serial.o
 .comment       0x00000000       0x27 ../lilybuzzer/_build/nrf_serial.o
 .ARM.attributes
                0x00000000       0x34 ../lilybuzzer/_build/nrf_serial.o
 .text          0x00000000        0x0 ../lilybuzzer/_build/nrf_strerror.o
 .data          0x00000000        0x0 ../lilybuzzer/_build/nrf_strerror.o
 .bss           0x00000000        0x0 ../lilybuzzer/_build/nrf_strerror.o
 .text          0x00000000        0x0 ../lilybuzzer/_build/nrf_twi_mngr.o
 .data          0x00000000        0x0 ../lilybuzzer/_build/nrf_twi_mngr.o
 .bss           0x00000000        0x0 ../lilybuzzer/_build/nrf_twi_mngr.o
 .text.nrf_twi_mngr_uninit
                0x00000000       0x24 ../lilybuzzer/_build/nrf_twi_mngr.o
 .text          0x00000000        0x0 ../lilybuzzer/_build/nrfx_clock.o
 .data          0x00000000        0x0 ../lilybuzzer/_build/nrfx_clock.o
 .bss           0x00000000        0x0 ../lilybuzzer/_build/nrfx_clock.o
 .rodata.nrfx_clock_init.str1.1
                0x00000000       0x4d ../lilybuzzer/_build/nrfx_clock.o
 .text.nrfx_clock_init
                0x00000000       0x28 ../lilybuzzer/_build/nrfx_clock.o
 .text.nrfx_clock_enable
                0x00000000       0x3c ../lilybuzzer/_build/nrfx_clock.o
 .text.nrfx_clock_disable
                0x00000000       0x38 ../lilybuzzer/_build/nrfx_clock.o
 .text.nrfx_clock_lfclk_start
                0x00000000       0x3c ../lilybuzzer/_build/nrfx_clock.o
 .text.nrfx_clock_lfclk_stop
                0x00000000       0x2c ../lilybuzzer/_build/nrfx_clock.o
 .text.nrfx_clock_hfclk_start
                0x00000000       0x38 ../lilybuzzer/_build/nrfx_clock.o
 .text.nrfx_clock_hfclk_stop
                0x00000000       0x34 ../lilybuzzer/_build/nrfx_clock.o
 .text.nrfx_clock_uninit
                0x00000000       0x28 ../lilybuzzer/_build/nrfx_clock.o
 .text.nrfx_clock_calibration_start
                0x00000000        0x4 ../lilybuzzer/_build/nrfx_clock.o
 .text.nrfx_clock_is_calibrating
                0x00000000        0x4 ../lilybuzzer/_build/nrfx_clock.o
 .text.nrfx_clock_calibration_timer_start
                0x00000000        0x2 ../lilybuzzer/_build/nrfx_clock.o
 .text.nrfx_clock_calibration_timer_stop
                0x00000000        0x2 ../lilybuzzer/_build/nrfx_clock.o
 .text          0x00000000        0x0 ../lilybuzzer/_build/nrfx_gpiote.o
 .data          0x00000000        0x0 ../lilybuzzer/_build/nrfx_gpiote.o
 .bss           0x00000000        0x0 ../lilybuzzer/_build/nrfx_gpiote.o
 .text.channel_free
                0x00000000       0x1c ../lilybuzzer/_build/nrfx_gpiote.o
 .text.pin_configured_clear
                0x00000000       0x1c ../lilybuzzer/_build/nrfx_gpiote.o
 .text.nrfx_gpiote_init
                0x00000000       0x70 ../lilybuzzer/_build/nrfx_gpiote.o
 .text.nrfx_gpiote_is_init
                0x00000000       0x14 ../lilybuzzer/_build/nrfx_gpiote.o
 .rodata.nrfx_gpiote_out_init.str1.1
                0x00000000       0x4e ../lilybuzzer/_build/nrfx_gpiote.o
 .text.nrfx_gpiote_out_init
                0x00000000      0x104 ../lilybuzzer/_build/nrfx_gpiote.o
 .text.nrfx_gpiote_out_uninit
                0x00000000       0x94 ../lilybuzzer/_build/nrfx_gpiote.o
 .text.nrfx_gpiote_out_set
                0x00000000       0x5c ../lilybuzzer/_build/nrfx_gpiote.o
 .text.nrfx_gpiote_out_clear
                0x00000000       0x5c ../lilybuzzer/_build/nrfx_gpiote.o
 .text.nrfx_gpiote_out_toggle
                0x00000000       0x68 ../lilybuzzer/_build/nrfx_gpiote.o
 .text.nrfx_gpiote_out_task_enable
                0x00000000       0x64 ../lilybuzzer/_build/nrfx_gpiote.o
 .text.nrfx_gpiote_out_task_disable
                0x00000000       0x64 ../lilybuzzer/_build/nrfx_gpiote.o
 .text.nrfx_gpiote_out_task_addr_get
                0x00000000       0x44 ../lilybuzzer/_build/nrfx_gpiote.o
 .text.nrfx_gpiote_set_task_addr_get
                0x00000000       0x48 ../lilybuzzer/_build/nrfx_gpiote.o
 .text.nrfx_gpiote_clr_task_addr_get
                0x00000000       0x48 ../lilybuzzer/_build/nrfx_gpiote.o
 .text.nrfx_gpiote_out_task_force
                0x00000000       0x70 ../lilybuzzer/_build/nrfx_gpiote.o
 .text.nrfx_gpiote_out_task_trigger
                0x00000000       0x5c ../lilybuzzer/_build/nrfx_gpiote.o
 .text.nrfx_gpiote_set_task_trigger
                0x00000000       0x60 ../lilybuzzer/_build/nrfx_gpiote.o
 .text.nrfx_gpiote_clr_task_trigger
                0x00000000       0x60 ../lilybuzzer/_build/nrfx_gpiote.o
 .text.nrfx_gpiote_in_init
                0x00000000      0x114 ../lilybuzzer/_build/nrfx_gpiote.o
 .text.nrfx_gpiote_in_event_enable
                0x00000000       0xbc ../lilybuzzer/_build/nrfx_gpiote.o
 .text.nrfx_gpiote_in_event_disable
                0x00000000       0x74 ../lilybuzzer/_build/nrfx_gpiote.o
 .text.nrfx_gpiote_in_uninit
                0x00000000       0x98 ../lilybuzzer/_build/nrfx_gpiote.o
 .text.nrfx_gpiote_uninit
                0x00000000       0x4c ../lilybuzzer/_build/nrfx_gpiote.o
 .text.nrfx_gpiote_in_is_set
                0x00000000       0x30 ../lilybuzzer/_build/nrfx_gpiote.o
 .text.nrfx_gpiote_in_event_addr_get
                0x00000000       0x54 ../lilybuzzer/_build/nrfx_gpiote.o
 .text          0x00000000        0x0 ../lilybuzzer/_build/nrfx_ppi.o
 .data          0x00000000        0x0 ../lilybuzzer/_build/nrfx_ppi.o
 .bss           0x00000000        0x0 ../lilybuzzer/_build/nrfx_ppi.o
 .comment       0x00000000       0x27 ../lilybuzzer/_build/nrfx_ppi.o
 .ARM.attributes
                0x00000000       0x34 ../lilybuzzer/_build/nrfx_ppi.o
 .text          0x00000000        0x0 ../lilybuzzer/_build/nrfx_prs.o
 .data          0x00000000        0x0 ../lilybuzzer/_build/nrfx_prs.o
 .bss           0x00000000        0x0 ../lilybuzzer/_build/nrfx_prs.o
 .text          0x00000000        0x0 ../lilybuzzer/_build/nrfx_pwm.o
 .data          0x00000000        0x0 ../lilybuzzer/_build/nrfx_pwm.o
 .bss           0x00000000        0x0 ../lilybuzzer/_build/nrfx_pwm.o
 .text.nrfx_pwm_uninit
                0x00000000       0x5c ../lilybuzzer/_build/nrfx_pwm.o
 .text.nrfx_pwm_complex_playback
                0x00000000       0xa8 ../lilybuzzer/_build/nrfx_pwm.o
 .text          0x00000000        0x0 ../lilybuzzer/_build/nrfx_saadc.o
 .data          0x00000000        0x0 ../lilybuzzer/_build/nrfx_saadc.o
 .bss           0x00000000        0x0 ../lilybuzzer/_build/nrfx_saadc.o
 .rodata.nrfx_saadc_init.str1.1
                0x00000000       0x91 ../lilybuzzer/_build/nrfx_saadc.o
 .text.nrfx_saadc_init
                0x00000000       0xbc ../lilybuzzer/_build/nrfx_saadc.o
 .text.nrfx_saadc_channel_init
                0x00000000      0x104 ../lilybuzzer/_build/nrfx_saadc.o
 .text.nrfx_saadc_sample_task_get
                0x00000000       0x1c ../lilybuzzer/_build/nrfx_saadc.o
 .text.nrfx_saadc_sample_convert
                0x00000000       0xe8 ../lilybuzzer/_build/nrfx_saadc.o
 .text.nrfx_saadc_buffer_convert
                0x00000000       0xcc ../lilybuzzer/_build/nrfx_saadc.o
 .text.nrfx_saadc_sample
                0x00000000       0x40 ../lilybuzzer/_build/nrfx_saadc.o
 .text.nrfx_saadc_calibrate_offset
                0x00000000       0x48 ../lilybuzzer/_build/nrfx_saadc.o
 .text.nrfx_saadc_is_busy
                0x00000000       0x10 ../lilybuzzer/_build/nrfx_saadc.o
 .text.nrfx_saadc_abort
                0x00000000       0x5c ../lilybuzzer/_build/nrfx_saadc.o
 .rodata.nrfx_saadc_limits_set.str1.1
                0x00000000       0x44 ../lilybuzzer/_build/nrfx_saadc.o
 .text.nrfx_saadc_limits_set
                0x00000000      0x100 ../lilybuzzer/_build/nrfx_saadc.o
 .text.nrfx_saadc_channel_uninit
                0x00000000       0x78 ../lilybuzzer/_build/nrfx_saadc.o
 .text.nrfx_saadc_uninit
                0x00000000       0x90 ../lilybuzzer/_build/nrfx_saadc.o
 .text          0x00000000        0x0 ../lilybuzzer/_build/nrfx_spim.o
 .data          0x00000000        0x0 ../lilybuzzer/_build/nrfx_spim.o
 .bss           0x00000000        0x0 ../lilybuzzer/_build/nrfx_spim.o
 .rodata.nrfx_spim_init.str1.1
                0x00000000       0x44 ../lilybuzzer/_build/nrfx_spim.o
 .text.nrfx_spim_init
                0x00000000      0x1fc ../lilybuzzer/_build/nrfx_spim.o
 .text.nrfx_spim_uninit
                0x00000000       0xc8 ../lilybuzzer/_build/nrfx_spim.o
 .text.nrfx_spim_xfer
                0x00000000      0x170 ../lilybuzzer/_build/nrfx_spim.o
 .text.nrfx_spim_abort
                0x00000000       0x40 ../lilybuzzer/_build/nrfx_spim.o
 .text.nrfx_spim_start_task_get
                0x00000000        0x6 ../lilybuzzer/_build/nrfx_spim.o
 .text.nrfx_spim_end_event_get
                0x00000000        0x8 ../lilybuzzer/_build/nrfx_spim.o
 .text          0x00000000        0x0 ../lilybuzzer/_build/nrfx_timer.o
 .data          0x00000000        0x0 ../lilybuzzer/_build/nrfx_timer.o
 .bss           0x00000000        0x0 ../lilybuzzer/_build/nrfx_timer.o
 .rodata.nrfx_timer_init.str1.1
                0x00000000       0x91 ../lilybuzzer/_build/nrfx_timer.o
 .text.nrfx_timer_init
                0x00000000      0x14c ../lilybuzzer/_build/nrfx_timer.o
 .text.nrfx_timer_enable
                0x00000000       0x38 ../lilybuzzer/_build/nrfx_timer.o
 .text.nrfx_timer_disable
                0x00000000       0x34 ../lilybuzzer/_build/nrfx_timer.o
 .text.nrfx_timer_uninit
                0x00000000       0x5c ../lilybuzzer/_build/nrfx_timer.o
 .text.nrfx_timer_is_enabled
                0x00000000       0x34 ../lilybuzzer/_build/nrfx_timer.o
 .text.nrfx_timer_resume
                0x00000000       0x2c ../lilybuzzer/_build/nrfx_timer.o
 .text.nrfx_timer_pause
                0x00000000       0x2c ../lilybuzzer/_build/nrfx_timer.o
 .text.nrfx_timer_clear
                0x00000000       0x2c ../lilybuzzer/_build/nrfx_timer.o
 .text.nrfx_timer_increment
                0x00000000       0x3c ../lilybuzzer/_build/nrfx_timer.o
 .text.nrfx_timer_capture
                0x00000000       0x4c ../lilybuzzer/_build/nrfx_timer.o
 .text.nrfx_timer_compare
                0x00000000       0x36 ../lilybuzzer/_build/nrfx_timer.o
 .text.nrfx_timer_extended_compare
                0x00000000       0x2c ../lilybuzzer/_build/nrfx_timer.o
 .text.nrfx_timer_compare_int_enable
                0x00000000       0x58 ../lilybuzzer/_build/nrfx_timer.o
 .text.nrfx_timer_compare_int_disable
                0x00000000       0x44 ../lilybuzzer/_build/nrfx_timer.o
 .text          0x00000000        0x0 ../lilybuzzer/_build/nrfx_twi.o
 .data          0x00000000        0x0 ../lilybuzzer/_build/nrfx_twi.o
 .bss           0x00000000        0x0 ../lilybuzzer/_build/nrfx_twi.o
 .comment       0x00000000       0x27 ../lilybuzzer/_build/nrfx_twi.o
 .ARM.attributes
                0x00000000       0x34 ../lilybuzzer/_build/nrfx_twi.o
 .text          0x00000000        0x0 ../lilybuzzer/_build/nrfx_twim.o
 .data          0x00000000        0x0 ../lilybuzzer/_build/nrfx_twim.o
 .bss           0x00000000        0x0 ../lilybuzzer/_build/nrfx_twim.o
 .text.nrfx_twim_is_busy
                0x00000000       0x14 ../lilybuzzer/_build/nrfx_twim.o
 .text.nrfx_twim_tx
                0x00000000       0x26 ../lilybuzzer/_build/nrfx_twim.o
 .text.nrfx_twim_rx
                0x00000000       0x24 ../lilybuzzer/_build/nrfx_twim.o
 .text.nrfx_twim_start_task_get
                0x00000000        0xe ../lilybuzzer/_build/nrfx_twim.o
 .text.nrfx_twim_stopped_event_get
                0x00000000        0x8 ../lilybuzzer/_build/nrfx_twim.o
 .text          0x00000000        0x0 ../lilybuzzer/_build/nrfx_uart.o
 .data          0x00000000        0x0 ../lilybuzzer/_build/nrfx_uart.o
 .bss           0x00000000        0x0 ../lilybuzzer/_build/nrfx_uart.o
 .text.nrfx_uart_rx_ready
                0x00000000        0xe ../lilybuzzer/_build/nrfx_uart.o
 .text.nrfx_uart_rx_enable
                0x00000000       0x2c ../lilybuzzer/_build/nrfx_uart.o
 .text.nrfx_uart_rx_disable
                0x00000000       0x1c ../lilybuzzer/_build/nrfx_uart.o
 .text.nrfx_uart_errorsrc_get
                0x00000000       0x1a ../lilybuzzer/_build/nrfx_uart.o
 .text.nrfx_uart_tx_abort
                0x00000000       0x3c ../lilybuzzer/_build/nrfx_uart.o
 .text.nrfx_uart_rx_abort
                0x00000000       0x12 ../lilybuzzer/_build/nrfx_uart.o
 .text          0x00000000        0x0 ../lilybuzzer/_build/nrfx_uarte.o
 .data          0x00000000        0x0 ../lilybuzzer/_build/nrfx_uarte.o
 .bss           0x00000000        0x0 ../lilybuzzer/_build/nrfx_uarte.o
 .text.nrfx_uarte_rx_ready
                0x00000000        0xe ../lilybuzzer/_build/nrfx_uarte.o
 .text.nrfx_uarte_errorsrc_get
                0x00000000       0x1a ../lilybuzzer/_build/nrfx_uarte.o
 .text.nrfx_uarte_tx_abort
                0x00000000       0x34 ../lilybuzzer/_build/nrfx_uarte.o
 .text.nrfx_uarte_rx_abort
                0x00000000       0x28 ../lilybuzzer/_build/nrfx_uarte.o
 .text          0x00000000        0x0 ../lilybuzzer/_build/system_nrf52833.o
 .data          0x00000000        0x0 ../lilybuzzer/_build/system_nrf52833.o
 .bss           0x00000000        0x0 ../lilybuzzer/_build/system_nrf52833.o
 .text.SystemCoreClockUpdate
                0x00000000       0x10 ../lilybuzzer/_build/system_nrf52833.o
 .text          0x00000000        0x0 ../lilybuzzer/_build/app_error_weak.o
 .data          0x00000000        0x0 ../lilybuzzer/_build/app_error_weak.o
 .bss           0x00000000        0x0 ../lilybuzzer/_build/app_error_weak.o
 .rodata.app_error_fault_handler.str1.1
                0x00000000       0x6c ../lilybuzzer/_build/app_error_weak.o
 .text.app_error_fault_handler
                0x00000000       0xb0 ../lilybuzzer/_build/app_error_weak.o
 .comment       0x00000000       0x27 ../lilybuzzer/_build/app_error_weak.o
 .ARM.attributes
                0x00000000       0x34 ../lilybuzzer/_build/app_error_weak.o
 .data          0x00000000        0x0 ../lilybuzzer/_build/gcc_startup_nrf52833.os
 .bss           0x00000000        0x0 ../lilybuzzer/_build/gcc_startup_nrf52833.os
 .data          0x00000000        0x0 /usr/lib/gcc/arm-none-eabi/13.2.1/../../../arm-none-eabi/lib/thumb/v7e-m+fp/hard/libc.a(libc_a-strlen.o)
 .bss           0x00000000        0x0 /usr/lib/gcc/arm-none-eabi/13.2.1/../../../arm-none-eabi/lib/thumb/v7e-m+fp/hard/libc.a(libc_a-strlen.o)
 .ARM.extab     0x00000000        0x0 /usr/lib/gcc/arm-none-eabi/13.2.1/../../../arm-none-eabi/lib/thumb/v7e-m+fp/hard/libc.a(libc_a-strlen.o)
 .data          0x00000000        0x0 /usr/lib/gcc/arm-none-eabi/13.2.1/../../../arm-none-eabi/lib/thumb/v7e-m+fp/hard/libc.a(libc_a-memset.o)
 .bss           0x00000000        0x0 /usr/lib/gcc/arm-none-eabi/13.2.1/../../../arm-none-eabi/lib/thumb/v7e-m+fp/hard/libc.a(libc_a-memset.o)
 .text          0x00000000        0x0 /usr/lib/gcc/arm-none-eabi/13.2.1/../../../arm-none-eabi/lib/thumb/v7e-m+fp/hard/libc.a(libc_a-impure.o)
 .bss           0x00000000        0x0 /usr/lib/gcc/arm-none-eabi/13.2.1/../../../arm-none-eabi/lib/thumb/v7e-m+fp/hard/libc.a(libc_a-impure.o)
 .data          0x00000000        0x0 /usr/lib/gcc/arm-none-eabi/13.2.1/../../../arm-none-eabi/lib/thumb/v7e-m+fp/hard/libc.a(libc_a-setbuf.o)
 .bss           0x00000000        0x0 /usr/lib/gcc/arm-none-eabi/13.2.1/../../../arm-none-eabi/lib/thumb/v7e-m+fp/hard/libc.a(libc_a-setbuf.o)
 .data          0x00000000        0x0 /usr/lib/gcc/arm-none-eabi/13.2.1/../../../arm-none-eabi/lib/thumb/v7e-m+fp/hard/libc.a(libc_a-memcmp.o)
 .bss           0x00000000        0x0 /usr/lib/gcc/arm-none-eabi/13.2.1/../../../arm-none-eabi/lib/thumb/v7e-m+fp/hard/libc.a(libc_a-memcmp.o)
 .data          0x00000000        0x0 /usr/lib/gcc/arm-none-eabi/13.2.1/../../../arm-none-eabi/lib/thumb/v7e-m+fp/hard/libc.a(libc_a-memcpy.o)
 .bss           0x00000000        0x0 /usr/lib/gcc/arm-none-eabi/13.2.1/../../../arm-none-eabi/lib/thumb/v7e-m+fp/hard/libc.a(libc_a-memcpy.o)
 .ARM.extab     0x00000000        0x0 /usr/lib/gcc/arm-none-eabi/13.2.1/../../../arm-none-eabi/lib/thumb/v7e-m+fp/hard/libc.a(libc_a-memcpy.o)
 .data          0x00000000        0x0 /usr/lib/gcc/arm-none-eabi/13.2.1/../../../arm-none-eabi/lib/thumb/v7e-m+fp/hard/libc.a(libc_a-init.o)
 .bss           0x00000000        0x0 /usr/lib/gcc/arm-none-eabi/13.2.1/../../../arm-none-eabi/lib/thumb/v7e-m+fp/hard/libc.a(libc_a-init.o)
 .data          0x00000000        0x0 /usr/lib/gcc/arm-none-eabi/13.2.1/../../../arm-none-eabi/lib/thumb/v7e-m+fp/hard/libc.a(libc_a-exit.o)
 .bss           0x00000000        0x0 /usr/lib/gcc/arm-none-eabi/13.2.1/../../../arm-none-eabi/lib/thumb/v7e-m+fp/hard/libc.a(libc_a-exit.o)
 .text          0x00000000        0x0 /usr/lib/gcc/arm-none-eabi/13.2.1/../../../arm-none-eabi/lib/thumb/v7e-m+fp/hard/libc.a(libc_a-ctype_.o)
 .data          0x00000000        0x0 /usr/lib/gcc/arm-none-eabi/13.2.1/../../../arm-none-eabi/lib/thumb/v7e-m+fp/hard/libc.a(libc_a-ctype_.o)
 .bss           0x00000000        0x0 /usr/lib/gcc/arm-none-eabi/13.2.1/../../../arm-none-eabi/lib/thumb/v7e-m+fp/hard/libc.a(libc_a-ctype_.o)
 .data          0x00000000        0x0 /usr/lib/gcc/arm-none-eabi/13.2.1/../../../arm-none-eabi/lib/thumb/v7e-m+fp/hard/libc.a(libc_a-atexit.o)
 .bss           0x00000000        0x0 /usr/lib/gcc/arm-none-eabi/13.2.1/../../../arm-none-eabi/lib/thumb/v7e-m+fp/hard/libc.a(libc_a-atexit.o)
 .data          0x00000000        0x0 /usr/lib/gcc/arm-none-eabi/13.2.1/../../../arm-none-eabi/lib/thumb/v7e-m+fp/hard/libc.a(libc_a-printf.o)
 .bss           0x00000000        0x0 /usr/lib/gcc/arm-none-eabi/13.2.1/../../../arm-none-eabi/lib/thumb/v7e-m+fp/hard/libc.a(libc_a-printf.o)
 .data          0x00000000        0x0 /usr/lib/gcc/arm-none-eabi/13.2.1/../../../arm-none-eabi/lib/thumb/v7e-m+fp/hard/libc.a(libc_a-fini.o)
 .bss           0x00000000        0x0 /usr/lib/gcc/arm-none-eabi/13.2.1/../../../arm-none-eabi/lib/thumb/v7e-m+fp/hard/libc.a(libc_a-fini.o)
 .data          0x00000000        0x0 /usr/lib/gcc/arm-none-eabi/13.2.1/../../../arm-none-eabi/lib/thumb/v7e-m+fp/hard/libc.a(libc_a-fwalk.o)
 .bss           0x00000000        0x0 /usr/lib/gcc/arm-none-eabi/13.2.1/../../../arm-none-eabi/lib/thumb/v7e-m+fp/hard/libc.a(libc_a-fwalk.o)
 .data          0x00000000        0x0 /usr/lib/gcc/arm-none-eabi/13.2.1/../../../arm-none-eabi/lib/thumb/v7e-m+fp/hard/libc.a(libc_a-vfprintf.o)
 .bss           0x00000000        0x0 /usr/lib/gcc/arm-none-eabi/13.2.1/../../../arm-none-eabi/lib/thumb/v7e-m+fp/hard/libc.a(libc_a-vfprintf.o)
 .data          0x00000000        0x0 /usr/lib/gcc/arm-none-eabi/13.2.1/../../../arm-none-eabi/lib/thumb/v7e-m+fp/hard/libc.a(libc_a-memchr.o)
 .bss           0x00000000        0x0 /usr/lib/gcc/arm-none-eabi/13.2.1/../../../arm-none-eabi/lib/thumb/v7e-m+fp/hard/libc.a(libc_a-memchr.o)
 .ARM.extab     0x00000000        0x0 /usr/lib/gcc/arm-none-eabi/13.2.1/../../../arm-none-eabi/lib/thumb/v7e-m+fp/hard/libc.a(libc_a-memchr.o)
 .data          0x00000000        0x0 /usr/lib/gcc/arm-none-eabi/13.2.1/../../../arm-none-eabi/lib/thumb/v7e-m+fp/hard/libc.a(libc_a-fflush.o)
 .bss           0x00000000        0x0 /usr/lib/gcc/arm-none-eabi/13.2.1/../../../arm-none-eabi/lib/thumb/v7e-m+fp/hard/libc.a(libc_a-fflush.o)
 .data          0x00000000        0x0 /usr/lib/gcc/arm-none-eabi/13.2.1/../../../arm-none-eabi/lib/thumb/v7e-m+fp/hard/libc.a(libc_a-setvbuf.o)
 .bss           0x00000000        0x0 /usr/lib/gcc/arm-none-eabi/13.2.1/../../../arm-none-eabi/lib/thumb/v7e-m+fp/hard/libc.a(libc_a-setvbuf.o)
 .data          0x00000000        0x0 /usr/lib/gcc/arm-none-eabi/13.2.1/../../../arm-none-eabi/lib/thumb/v7e-m+fp/hard/libc.a(libc_a-dtoa.o)
 .bss           0x00000000        0x0 /usr/lib/gcc/arm-none-eabi/13.2.1/../../../arm-none-eabi/lib/thumb/v7e-m+fp/hard/libc.a(libc_a-dtoa.o)
 .data          0x00000000        0x0 /usr/lib/gcc/arm-none-eabi/13.2.1/../../../arm-none-eabi/lib/thumb/v7e-m+fp/hard/libc.a(libc_a-wsetup.o)
 .bss           0x00000000        0x0 /usr/lib/gcc/arm-none-eabi/13.2.1/../../../arm-none-eabi/lib/thumb/v7e-m+fp/hard/libc.a(libc_a-wsetup.o)
 .data          0x00000000        0x0 /usr/lib/gcc/arm-none-eabi/13.2.1/../../../arm-none-eabi/lib/thumb/v7e-m+fp/hard/libc.a(libc_a-freer.o)
 .bss           0x00000000        0x0 /usr/lib/gcc/arm-none-eabi/13.2.1/../../../arm-none-eabi/lib/thumb/v7e-m+fp/hard/libc.a(libc_a-freer.o)
 .data          0x00000000        0x0 /usr/lib/gcc/arm-none-eabi/13.2.1/../../../arm-none-eabi/lib/thumb/v7e-m+fp/hard/libc.a(libc_a-fclose.o)
 .bss           0x00000000        0x0 /usr/lib/gcc/arm-none-eabi/13.2.1/../../../arm-none-eabi/lib/thumb/v7e-m+fp/hard/libc.a(libc_a-fclose.o)
 .data          0x00000000        0x0 /usr/lib/gcc/arm-none-eabi/13.2.1/../../../arm-none-eabi/lib/thumb/v7e-m+fp/hard/libc.a(libc_a-__call_atexit.o)
 .data          0x00000000        0x0 /usr/lib/gcc/arm-none-eabi/13.2.1/../../../arm-none-eabi/lib/thumb/v7e-m+fp/hard/libc.a(libc_a-malloc.o)
 .bss           0x00000000        0x0 /usr/lib/gcc/arm-none-eabi/13.2.1/../../../arm-none-eabi/lib/thumb/v7e-m+fp/hard/libc.a(libc_a-malloc.o)
 .data          0x00000000        0x0 /usr/lib/gcc/arm-none-eabi/13.2.1/../../../arm-none-eabi/lib/thumb/v7e-m+fp/hard/libc.a(libc_a-sysconf.o)
 .bss           0x00000000        0x0 /usr/lib/gcc/arm-none-eabi/13.2.1/../../../arm-none-eabi/lib/thumb/v7e-m+fp/hard/libc.a(libc_a-sysconf.o)
 .data          0x00000000        0x0 /usr/lib/gcc/arm-none-eabi/13.2.1/../../../arm-none-eabi/lib/thumb/v7e-m+fp/hard/libc.a(libc_a-stdio.o)
 .bss           0x00000000        0x0 /usr/lib/gcc/arm-none-eabi/13.2.1/../../../arm-none-eabi/lib/thumb/v7e-m+fp/hard/libc.a(libc_a-stdio.o)
 .data          0x00000000        0x0 /usr/lib/gcc/arm-none-eabi/13.2.1/../../../arm-none-eabi/lib/thumb/v7e-m+fp/hard/libc.a(libc_a-__atexit.o)
 .data          0x00000000        0x0 /usr/lib/gcc/arm-none-eabi/13.2.1/../../../arm-none-eabi/lib/thumb/v7e-m+fp/hard/libc.a(libc_a-writer.o)
 .bss           0x00000000        0x0 /usr/lib/gcc/arm-none-eabi/13.2.1/../../../arm-none-eabi/lib/thumb/v7e-m+fp/hard/libc.a(libc_a-writer.o)
 .data          0x00000000        0x0 /usr/lib/gcc/arm-none-eabi/13.2.1/../../../arm-none-eabi/lib/thumb/v7e-m+fp/hard/libc.a(libc_a-mlock.o)
 .bss           0x00000000        0x0 /usr/lib/gcc/arm-none-eabi/13.2.1/../../../arm-none-eabi/lib/thumb/v7e-m+fp/hard/libc.a(libc_a-mlock.o)
 .data          0x00000000        0x0 /usr/lib/gcc/arm-none-eabi/13.2.1/../../../arm-none-eabi/lib/thumb/v7e-m+fp/hard/libc.a(libc_a-sbrkr.o)
 .bss           0x00000000        0x0 /usr/lib/gcc/arm-none-eabi/13.2.1/../../../arm-none-eabi/lib/thumb/v7e-m+fp/hard/libc.a(libc_a-sbrkr.o)
 .data          0x00000000        0x0 /usr/lib/gcc/arm-none-eabi/13.2.1/../../../arm-none-eabi/lib/thumb/v7e-m+fp/hard/libc.a(libc_a-closer.o)
 .bss           0x00000000        0x0 /usr/lib/gcc/arm-none-eabi/13.2.1/../../../arm-none-eabi/lib/thumb/v7e-m+fp/hard/libc.a(libc_a-closer.o)
 .data          0x00000000        0x0 /usr/lib/gcc/arm-none-eabi/13.2.1/../../../arm-none-eabi/lib/thumb/v7e-m+fp/hard/libc.a(libc_a-sprint_r.o)
 .bss           0x00000000        0x0 /usr/lib/gcc/arm-none-eabi/13.2.1/../../../arm-none-eabi/lib/thumb/v7e-m+fp/hard/libc.a(libc_a-sprint_r.o)
 .data          0x00000000        0x0 /usr/lib/gcc/arm-none-eabi/13.2.1/../../../arm-none-eabi/lib/thumb/v7e-m+fp/hard/libc.a(libc_a-assert.o)
 .bss           0x00000000        0x0 /usr/lib/gcc/arm-none-eabi/13.2.1/../../../arm-none-eabi/lib/thumb/v7e-m+fp/hard/libc.a(libc_a-assert.o)
 .data          0x00000000        0x0 /usr/lib/gcc/arm-none-eabi/13.2.1/../../../arm-none-eabi/lib/thumb/v7e-m+fp/hard/libc.a(libc_a-mprec.o)
 .bss           0x00000000        0x0 /usr/lib/gcc/arm-none-eabi/13.2.1/../../../arm-none-eabi/lib/thumb/v7e-m+fp/hard/libc.a(libc_a-mprec.o)
 .data          0x00000000        0x0 /usr/lib/gcc/arm-none-eabi/13.2.1/../../../arm-none-eabi/lib/thumb/v7e-m+fp/hard/libc.a(libc_a-localeconv.o)
 .bss           0x00000000        0x0 /usr/lib/gcc/arm-none-eabi/13.2.1/../../../arm-none-eabi/lib/thumb/v7e-m+fp/hard/libc.a(libc_a-localeconv.o)
 .data          0x00000000        0x0 /usr/lib/gcc/arm-none-eabi/13.2.1/../../../arm-none-eabi/lib/thumb/v7e-m+fp/hard/libc.a(libc_a-makebuf.o)
 .bss           0x00000000        0x0 /usr/lib/gcc/arm-none-eabi/13.2.1/../../../arm-none-eabi/lib/thumb/v7e-m+fp/hard/libc.a(libc_a-makebuf.o)
 .text          0x00000000       0x8c /usr/lib/gcc/arm-none-eabi/13.2.1/../../../arm-none-eabi/lib/thumb/v7e-m+fp/hard/libc.a(libc_a-locale.o)
 .bss           0x00000000        0x4 /usr/lib/gcc/arm-none-eabi/13.2.1/../../../arm-none-eabi/lib/thumb/v7e-m+fp/hard/libc.a(libc_a-locale.o)
 .text          0x00000000      0x2e0 /usr/lib/gcc/arm-none-eabi/13.2.1/../../../arm-none-eabi/lib/thumb/v7e-m+fp/hard/libc.a(libc_a-strcmp.o)
 .data          0x00000000        0x0 /usr/lib/gcc/arm-none-eabi/13.2.1/../../../arm-none-eabi/lib/thumb/v7e-m+fp/hard/libc.a(libc_a-strcmp.o)
 .bss           0x00000000        0x0 /usr/lib/gcc/arm-none-eabi/13.2.1/../../../arm-none-eabi/lib/thumb/v7e-m+fp/hard/libc.a(libc_a-strcmp.o)
 .ARM.extab     0x00000000        0x0 /usr/lib/gcc/arm-none-eabi/13.2.1/../../../arm-none-eabi/lib/thumb/v7e-m+fp/hard/libc.a(libc_a-strcmp.o)
 .ARM.exidx     0x00000000        0x8 /usr/lib/gcc/arm-none-eabi/13.2.1/../../../arm-none-eabi/lib/thumb/v7e-m+fp/hard/libc.a(libc_a-strcmp.o)
 .debug_line    0x00000000      0x10e /usr/lib/gcc/arm-none-eabi/13.2.1/../../../arm-none-eabi/lib/thumb/v7e-m+fp/hard/libc.a(libc_a-strcmp.o)
 .debug_line_str
                0x00000000       0x93 /usr/lib/gcc/arm-none-eabi/13.2.1/../../../arm-none-eabi/lib/thumb/v7e-m+fp/hard/libc.a(libc_a-strcmp.o)
 .debug_info    0x00000000       0x33 /usr/lib/gcc/arm-none-eabi/13.2.1/../../../arm-none-eabi/lib/thumb/v7e-m+fp/hard/libc.a(libc_a-strcmp.o)
 .debug_abbrev  0x00000000       0x28 /usr/lib/gcc/arm-none-eabi/13.2.1/../../../arm-none-eabi/lib/thumb/v7e-m+fp/hard/libc.a(libc_a-strcmp.o)
 .debug_aranges
                0x00000000       0x20 /usr/lib/gcc/arm-none-eabi/13.2.1/../../../arm-none-eabi/lib/thumb/v7e-m+fp/hard/libc.a(libc_a-strcmp.o)
 .debug_str     0x00000000       0xa6 /usr/lib/gcc/arm-none-eabi/13.2.1/../../../arm-none-eabi/lib/thumb/v7e-m+fp/hard/libc.a(libc_a-strcmp.o)
 .debug_frame   0x00000000       0x7c /usr/lib/gcc/arm-none-eabi/13.2.1/../../../arm-none-eabi/lib/thumb/v7e-m+fp/hard/libc.a(libc_a-strcmp.o)
 .ARM.attributes
                0x00000000       0x20 /usr/lib/gcc/arm-none-eabi/13.2.1/../../../arm-none-eabi/lib/thumb/v7e-m+fp/hard/libc.a(libc_a-strcmp.o)
 .data          0x00000000        0x0 /usr/lib/gcc/arm-none-eabi/13.2.1/../../../arm-none-eabi/lib/thumb/v7e-m+fp/hard/libc.a(libc_a-mbtowc_r.o)
 .bss           0x00000000        0x0 /usr/lib/gcc/arm-none-eabi/13.2.1/../../../arm-none-eabi/lib/thumb/v7e-m+fp/hard/libc.a(libc_a-mbtowc_r.o)
 .data          0x00000000        0x0 /usr/lib/gcc/arm-none-eabi/13.2.1/../../../arm-none-eabi/lib/thumb/v7e-m+fp/hard/libc.a(libc_a-errno.o)
 .bss           0x00000000        0x0 /usr/lib/gcc/arm-none-eabi/13.2.1/../../../arm-none-eabi/lib/thumb/v7e-m+fp/hard/libc.a(libc_a-errno.o)
 .data          0x00000000        0x0 /usr/lib/gcc/arm-none-eabi/13.2.1/../../../arm-none-eabi/lib/thumb/v7e-m+fp/hard/libc.a(libc_a-abort.o)
 .bss           0x00000000        0x0 /usr/lib/gcc/arm-none-eabi/13.2.1/../../../arm-none-eabi/lib/thumb/v7e-m+fp/hard/libc.a(libc_a-abort.o)
 .data          0x00000000        0x0 /usr/lib/gcc/arm-none-eabi/13.2.1/../../../arm-none-eabi/lib/thumb/v7e-m+fp/hard/libc.a(libc_a-callocr.o)
 .bss           0x00000000        0x0 /usr/lib/gcc/arm-none-eabi/13.2.1/../../../arm-none-eabi/lib/thumb/v7e-m+fp/hard/libc.a(libc_a-callocr.o)
 .data          0x00000000        0x0 /usr/lib/gcc/arm-none-eabi/13.2.1/../../../arm-none-eabi/lib/thumb/v7e-m+fp/hard/libc.a(libc_a-readr.o)
 .bss           0x00000000        0x0 /usr/lib/gcc/arm-none-eabi/13.2.1/../../../arm-none-eabi/lib/thumb/v7e-m+fp/hard/libc.a(libc_a-readr.o)
 .data          0x00000000        0x0 /usr/lib/gcc/arm-none-eabi/13.2.1/../../../arm-none-eabi/lib/thumb/v7e-m+fp/hard/libc.a(libc_a-fiprintf.o)
 .bss           0x00000000        0x0 /usr/lib/gcc/arm-none-eabi/13.2.1/../../../arm-none-eabi/lib/thumb/v7e-m+fp/hard/libc.a(libc_a-fiprintf.o)
 .data          0x00000000        0x0 /usr/lib/gcc/arm-none-eabi/13.2.1/../../../arm-none-eabi/lib/thumb/v7e-m+fp/hard/libc.a(libc_a-wctomb_r.o)
 .bss           0x00000000        0x0 /usr/lib/gcc/arm-none-eabi/13.2.1/../../../arm-none-eabi/lib/thumb/v7e-m+fp/hard/libc.a(libc_a-wctomb_r.o)
 .data          0x00000000        0x0 /usr/lib/gcc/arm-none-eabi/13.2.1/../../../arm-none-eabi/lib/thumb/v7e-m+fp/hard/libc.a(libc_a-lseekr.o)
 .bss           0x00000000        0x0 /usr/lib/gcc/arm-none-eabi/13.2.1/../../../arm-none-eabi/lib/thumb/v7e-m+fp/hard/libc.a(libc_a-lseekr.o)
 .text          0x00000000       0x6c /usr/lib/gcc/arm-none-eabi/13.2.1/../../../arm-none-eabi/lib/thumb/v7e-m+fp/hard/libc.a(libc_a-reent.o)
 .data          0x00000000        0x0 /usr/lib/gcc/arm-none-eabi/13.2.1/../../../arm-none-eabi/lib/thumb/v7e-m+fp/hard/libc.a(libc_a-reent.o)
 .data          0x00000000        0x0 /usr/lib/gcc/arm-none-eabi/13.2.1/../../../arm-none-eabi/lib/thumb/v7e-m+fp/hard/libc.a(libc_a-fstatr.o)
 .bss           0x00000000        0x0 /usr/lib/gcc/arm-none-eabi/13.2.1/../../../arm-none-eabi/lib/thumb/v7e-m+fp/hard/libc.a(libc_a-fstatr.o)
 .data          0x00000000        0x0 /usr/lib/gcc/arm-none-eabi/13.2.1/../../../arm-none-eabi/lib/thumb/v7e-m+fp/hard/libc.a(libc_a-isattyr.o)
 .bss           0x00000000        0x0 /usr/lib/gcc/arm-none-eabi/13.2.1/../../../arm-none-eabi/lib/thumb/v7e-m+fp/hard/libc.a(libc_a-isattyr.o)
 .data          0x00000000        0x0 /usr/lib/gcc/arm-none-eabi/13.2.1/../../../arm-none-eabi/lib/thumb/v7e-m+fp/hard/libc.a(libc_a-fvwrite.o)
 .bss           0x00000000        0x0 /usr/lib/gcc/arm-none-eabi/13.2.1/../../../arm-none-eabi/lib/thumb/v7e-m+fp/hard/libc.a(libc_a-fvwrite.o)
 .data          0x00000000        0x0 /usr/lib/gcc/arm-none-eabi/13.2.1/../../../arm-none-eabi/lib/thumb/v7e-m+fp/hard/libc.a(libc_a-signal.o)
 .bss           0x00000000        0x0 /usr/lib/gcc/arm-none-eabi/13.2.1/../../../arm-none-eabi/lib/thumb/v7e-m+fp/hard/libc.a(libc_a-signal.o)
 .data          0x00000000        0x0 /usr/lib/gcc/arm-none-eabi/13.2.1/../../../arm-none-eabi/lib/thumb/v7e-m+fp/hard/libc.a(libc_a-signalr.o)
 .bss           0x00000000        0x0 /usr/lib/gcc/arm-none-eabi/13.2.1/../../../arm-none-eabi/lib/thumb/v7e-m+fp/hard/libc.a(libc_a-signalr.o)
 .data          0x00000000        0x0 /usr/lib/gcc/arm-none-eabi/13.2.1/../../../arm-none-eabi/lib/thumb/v7e-m+fp/hard/libc.a(libc_a-memmove.o)
 .bss           0x00000000        0x0 /usr/lib/gcc/arm-none-eabi/13.2.1/../../../arm-none-eabi/lib/thumb/v7e-m+fp/hard/libc.a(libc_a-memmove.o)
 .data          0x00000000        0x0 /usr/lib/gcc/arm-none-eabi/13.2.1/../../../arm-none-eabi/lib/thumb/v7e-m+fp/hard/libc.a(libc_a-vfiprintf.o)
 .bss           0x00000000        0x0 /usr/lib/gcc/arm-none-eabi/13.2.1/../../../arm-none-eabi/lib/thumb/v7e-m+fp/hard/libc.a(libc_a-vfiprintf.o)
 .data          0x00000000        0x0 /usr/lib/gcc/arm-none-eabi/13.2.1/../../../arm-none-eabi/lib/thumb/v7e-m+fp/hard/libc.a(libc_a-reallocr.o)
 .bss           0x00000000        0x0 /usr/lib/gcc/arm-none-eabi/13.2.1/../../../arm-none-eabi/lib/thumb/v7e-m+fp/hard/libc.a(libc_a-reallocr.o)
 .data          0x00000000        0x0 /usr/lib/gcc/arm-none-eabi/13.2.1/../../../arm-none-eabi/lib/thumb/v7e-m+fp/hard/libnosys.a(close.o)
 .bss           0x00000000        0x0 /usr/lib/gcc/arm-none-eabi/13.2.1/../../../arm-none-eabi/lib/thumb/v7e-m+fp/hard/libnosys.a(close.o)
 .gnu.warning._close
                0x00000000        0x0 /usr/lib/gcc/arm-none-eabi/13.2.1/../../../arm-none-eabi/lib/thumb/v7e-m+fp/hard/libnosys.a(close.o)
 .data          0x00000000        0x0 /usr/lib/gcc/arm-none-eabi/13.2.1/../../../arm-none-eabi/lib/thumb/v7e-m+fp/hard/libnosys.a(fstat.o)
 .bss           0x00000000        0x0 /usr/lib/gcc/arm-none-eabi/13.2.1/../../../arm-none-eabi/lib/thumb/v7e-m+fp/hard/libnosys.a(fstat.o)
 .gnu.warning._fstat
                0x00000000        0x0 /usr/lib/gcc/arm-none-eabi/13.2.1/../../../arm-none-eabi/lib/thumb/v7e-m+fp/hard/libnosys.a(fstat.o)
 .data          0x00000000        0x0 /usr/lib/gcc/arm-none-eabi/13.2.1/../../../arm-none-eabi/lib/thumb/v7e-m+fp/hard/libnosys.a(getpid.o)
 .bss           0x00000000        0x0 /usr/lib/gcc/arm-none-eabi/13.2.1/../../../arm-none-eabi/lib/thumb/v7e-m+fp/hard/libnosys.a(getpid.o)
 .gnu.warning._getpid
                0x00000000        0x0 /usr/lib/gcc/arm-none-eabi/13.2.1/../../../arm-none-eabi/lib/thumb/v7e-m+fp/hard/libnosys.a(getpid.o)
 .data          0x00000000        0x0 /usr/lib/gcc/arm-none-eabi/13.2.1/../../../arm-none-eabi/lib/thumb/v7e-m+fp/hard/libnosys.a(isatty.o)
 .bss           0x00000000        0x0 /usr/lib/gcc/arm-none-eabi/13.2.1/../../../arm-none-eabi/lib/thumb/v7e-m+fp/hard/libnosys.a(isatty.o)
 .gnu.warning._isatty
                0x00000000        0x0 /usr/lib/gcc/arm-none-eabi/13.2.1/../../../arm-none-eabi/lib/thumb/v7e-m+fp/hard/libnosys.a(isatty.o)
 .data          0x00000000        0x0 /usr/lib/gcc/arm-none-eabi/13.2.1/../../../arm-none-eabi/lib/thumb/v7e-m+fp/hard/libnosys.a(kill.o)
 .bss           0x00000000        0x0 /usr/lib/gcc/arm-none-eabi/13.2.1/../../../arm-none-eabi/lib/thumb/v7e-m+fp/hard/libnosys.a(kill.o)
 .gnu.warning._kill
                0x00000000        0x0 /usr/lib/gcc/arm-none-eabi/13.2.1/../../../arm-none-eabi/lib/thumb/v7e-m+fp/hard/libnosys.a(kill.o)
 .data          0x00000000        0x0 /usr/lib/gcc/arm-none-eabi/13.2.1/../../../arm-none-eabi/lib/thumb/v7e-m+fp/hard/libnosys.a(lseek.o)
 .bss           0x00000000        0x0 /usr/lib/gcc/arm-none-eabi/13.2.1/../../../arm-none-eabi/lib/thumb/v7e-m+fp/hard/libnosys.a(lseek.o)
 .gnu.warning._lseek
                0x00000000        0x0 /usr/lib/gcc/arm-none-eabi/13.2.1/../../../arm-none-eabi/lib/thumb/v7e-m+fp/hard/libnosys.a(lseek.o)
 .data          0x00000000        0x0 /usr/lib/gcc/arm-none-eabi/13.2.1/../../../arm-none-eabi/lib/thumb/v7e-m+fp/hard/libnosys.a(sbrk.o)
 .data          0x00000000        0x0 /usr/lib/gcc/arm-none-eabi/13.2.1/../../../arm-none-eabi/lib/thumb/v7e-m+fp/hard/libnosys.a(_exit.o)
 .bss           0x00000000        0x0 /usr/lib/gcc/arm-none-eabi/13.2.1/../../../arm-none-eabi/lib/thumb/v7e-m+fp/hard/libnosys.a(_exit.o)
 .text          0x00000000      0x254 /usr/lib/gcc/arm-none-eabi/13.2.1/thumb/v7e-m+fp/hard/libgcc.a(_arm_muldf3.o)
 .data          0x00000000        0x0 /usr/lib/gcc/arm-none-eabi/13.2.1/thumb/v7e-m+fp/hard/libgcc.a(_arm_muldf3.o)
 .bss           0x00000000        0x0 /usr/lib/gcc/arm-none-eabi/13.2.1/thumb/v7e-m+fp/hard/libgcc.a(_arm_muldf3.o)
 .debug_line    0x00000000       0xf5 /usr/lib/gcc/arm-none-eabi/13.2.1/thumb/v7e-m+fp/hard/libgcc.a(_arm_muldf3.o)
 .debug_line_str
                0x00000000       0x9c /usr/lib/gcc/arm-none-eabi/13.2.1/thumb/v7e-m+fp/hard/libgcc.a(_arm_muldf3.o)
 .debug_info    0x00000000       0x3f /usr/lib/gcc/arm-none-eabi/13.2.1/thumb/v7e-m+fp/hard/libgcc.a(_arm_muldf3.o)
 .debug_abbrev  0x00000000       0x26 /usr/lib/gcc/arm-none-eabi/13.2.1/thumb/v7e-m+fp/hard/libgcc.a(_arm_muldf3.o)
 .debug_aranges
                0x00000000       0x20 /usr/lib/gcc/arm-none-eabi/13.2.1/thumb/v7e-m+fp/hard/libgcc.a(_arm_muldf3.o)
 .debug_str     0x00000000       0xbe /usr/lib/gcc/arm-none-eabi/13.2.1/thumb/v7e-m+fp/hard/libgcc.a(_arm_muldf3.o)
 .debug_frame   0x00000000       0x30 /usr/lib/gcc/arm-none-eabi/13.2.1/thumb/v7e-m+fp/hard/libgcc.a(_arm_muldf3.o)
 .ARM.attributes
                0x00000000       0x22 /usr/lib/gcc/arm-none-eabi/13.2.1/thumb/v7e-m+fp/hard/libgcc.a(_arm_muldf3.o)
 .data          0x00000000        0x0 /usr/lib/gcc/arm-none-eabi/13.2.1/thumb/v7e-m+fp/hard/libgcc.a(_arm_addsubdf3.o)
 .bss           0x00000000        0x0 /usr/lib/gcc/arm-none-eabi/13.2.1/thumb/v7e-m+fp/hard/libgcc.a(_arm_addsubdf3.o)
 .data          0x00000000        0x0 /usr/lib/gcc/arm-none-eabi/13.2.1/thumb/v7e-m+fp/hard/libgcc.a(_arm_muldivdf3.o)
 .bss           0x00000000        0x0 /usr/lib/gcc/arm-none-eabi/13.2.1/thumb/v7e-m+fp/hard/libgcc.a(_arm_muldivdf3.o)
 .data          0x00000000        0x0 /usr/lib/gcc/arm-none-eabi/13.2.1/thumb/v7e-m+fp/hard/libgcc.a(_arm_cmpdf2.o)
 .bss           0x00000000        0x0 /usr/lib/gcc/arm-none-eabi/13.2.1/thumb/v7e-m+fp/hard/libgcc.a(_arm_cmpdf2.o)
 .data          0x00000000        0x0 /usr/lib/gcc/arm-none-eabi/13.2.1/thumb/v7e-m+fp/hard/libgcc.a(_arm_unorddf2.o)
 .bss           0x00000000        0x0 /usr/lib/gcc/arm-none-eabi/13.2.1/thumb/v7e-m+fp/hard/libgcc.a(_arm_unorddf2.o)
 .data          0x00000000        0x0 /usr/lib/gcc/arm-none-eabi/13.2.1/thumb/v7e-m+fp/hard/libgcc.a(_arm_fixdfsi.o)
 .bss           0x00000000        0x0 /usr/lib/gcc/arm-none-eabi/13.2.1/thumb/v7e-m+fp/hard/libgcc.a(_arm_fixdfsi.o)
 .text          0x00000000       0xa0 /usr/lib/gcc/arm-none-eabi/13.2.1/thumb/v7e-m+fp/hard/libgcc.a(_aeabi_ldivmod.o)
 .data          0x00000000        0x0 /usr/lib/gcc/arm-none-eabi/13.2.1/thumb/v7e-m+fp/hard/libgcc.a(_aeabi_ldivmod.o)
 .bss           0x00000000        0x0 /usr/lib/gcc/arm-none-eabi/13.2.1/thumb/v7e-m+fp/hard/libgcc.a(_aeabi_ldivmod.o)
 .debug_line    0x00000000       0x6c /usr/lib/gcc/arm-none-eabi/13.2.1/thumb/v7e-m+fp/hard/libgcc.a(_aeabi_ldivmod.o)
 .debug_line_str
                0x00000000       0x97 /usr/lib/gcc/arm-none-eabi/13.2.1/thumb/v7e-m+fp/hard/libgcc.a(_aeabi_ldivmod.o)
 .debug_info    0x00000000       0x25 /usr/lib/gcc/arm-none-eabi/13.2.1/thumb/v7e-m+fp/hard/libgcc.a(_aeabi_ldivmod.o)
 .debug_abbrev  0x00000000       0x14 /usr/lib/gcc/arm-none-eabi/13.2.1/thumb/v7e-m+fp/hard/libgcc.a(_aeabi_ldivmod.o)
 .debug_aranges
                0x00000000       0x20 /usr/lib/gcc/arm-none-eabi/13.2.1/thumb/v7e-m+fp/hard/libgcc.a(_aeabi_ldivmod.o)
 .debug_str     0x00000000       0xa3 /usr/lib/gcc/arm-none-eabi/13.2.1/thumb/v7e-m+fp/hard/libgcc.a(_aeabi_ldivmod.o)
 .debug_frame   0x00000000       0x44 /usr/lib/gcc/arm-none-eabi/13.2.1/thumb/v7e-m+fp/hard/libgcc.a(_aeabi_ldivmod.o)
 .ARM.attributes
                0x00000000       0x22 /usr/lib/gcc/arm-none-eabi/13.2.1/thumb/v7e-m+fp/hard/libgcc.a(_aeabi_ldivmod.o)
 .text          0x00000000       0x30 /usr/lib/gcc/arm-none-eabi/13.2.1/thumb/v7e-m+fp/hard/libgcc.a(_aeabi_uldivmod.o)
 .data          0x00000000        0x0 /usr/lib/gcc/arm-none-eabi/13.2.1/thumb/v7e-m+fp/hard/libgcc.a(_aeabi_uldivmod.o)
 .bss           0x00000000        0x0 /usr/lib/gcc/arm-none-eabi/13.2.1/thumb/v7e-m+fp/hard/libgcc.a(_aeabi_uldivmod.o)
 .debug_line    0x00000000       0x4e /usr/lib/gcc/arm-none-eabi/13.2.1/thumb/v7e-m+fp/hard/libgcc.a(_aeabi_uldivmod.o)
 .debug_line_str
                0x00000000       0x97 /usr/lib/gcc/arm-none-eabi/13.2.1/thumb/v7e-m+fp/hard/libgcc.a(_aeabi_uldivmod.o)
 .debug_info    0x00000000       0x24 /usr/lib/gcc/arm-none-eabi/13.2.1/thumb/v7e-m+fp/hard/libgcc.a(_aeabi_uldivmod.o)
 .debug_abbrev  0x00000000       0x14 /usr/lib/gcc/arm-none-eabi/13.2.1/thumb/v7e-m+fp/hard/libgcc.a(_aeabi_uldivmod.o)
 .debug_aranges
                0x00000000       0x20 /usr/lib/gcc/arm-none-eabi/13.2.1/thumb/v7e-m+fp/hard/libgcc.a(_aeabi_uldivmod.o)
 .debug_str     0x00000000       0xa3 /usr/lib/gcc/arm-none-eabi/13.2.1/thumb/v7e-m+fp/hard/libgcc.a(_aeabi_uldivmod.o)
 .debug_frame   0x00000000       0x2c /usr/lib/gcc/arm-none-eabi/13.2.1/thumb/v7e-m+fp/hard/libgcc.a(_aeabi_uldivmod.o)
 .ARM.attributes
                0x00000000       0x22 /usr/lib/gcc/arm-none-eabi/13.2.1/thumb/v7e-m+fp/hard/libgcc.a(_aeabi_uldivmod.o)
 .text          0x00000000      0x2bc /usr/lib/gcc/arm-none-eabi/13.2.1/thumb/v7e-m+fp/hard/libgcc.a(_udivmoddi4.o)
 .data          0x00000000        0x0 /usr/lib/gcc/arm-none-eabi/13.2.1/thumb/v7e-m+fp/hard/libgcc.a(_udivmoddi4.o)
 .bss           0x00000000        0x0 /usr/lib/gcc/arm-none-eabi/13.2.1/thumb/v7e-m+fp/hard/libgcc.a(_udivmoddi4.o)
 .ARM.extab     0x00000000        0x0 /usr/lib/gcc/arm-none-eabi/13.2.1/thumb/v7e-m+fp/hard/libgcc.a(_udivmoddi4.o)
 .ARM.exidx     0x00000000        0x8 /usr/lib/gcc/arm-none-eabi/13.2.1/thumb/v7e-m+fp/hard/libgcc.a(_udivmoddi4.o)
 .debug_info    0x00000000      0x6f5 /usr/lib/gcc/arm-none-eabi/13.2.1/thumb/v7e-m+fp/hard/libgcc.a(_udivmoddi4.o)
 .debug_abbrev  0x00000000      0x16a /usr/lib/gcc/arm-none-eabi/13.2.1/thumb/v7e-m+fp/hard/libgcc.a(_udivmoddi4.o)
 .debug_loclists
                0x00000000      0x9e4 /usr/lib/gcc/arm-none-eabi/13.2.1/thumb/v7e-m+fp/hard/libgcc.a(_udivmoddi4.o)
 .debug_aranges
                0x00000000       0x20 /usr/lib/gcc/arm-none-eabi/13.2.1/thumb/v7e-m+fp/hard/libgcc.a(_udivmoddi4.o)
 .debug_rnglists
                0x00000000       0x84 /usr/lib/gcc/arm-none-eabi/13.2.1/thumb/v7e-m+fp/hard/libgcc.a(_udivmoddi4.o)
 .debug_line    0x00000000      0x574 /usr/lib/gcc/arm-none-eabi/13.2.1/thumb/v7e-m+fp/hard/libgcc.a(_udivmoddi4.o)
 .debug_str     0x00000000      0x685 /usr/lib/gcc/arm-none-eabi/13.2.1/thumb/v7e-m+fp/hard/libgcc.a(_udivmoddi4.o)
 .comment       0x00000000       0x27 /usr/lib/gcc/arm-none-eabi/13.2.1/thumb/v7e-m+fp/hard/libgcc.a(_udivmoddi4.o)
 .debug_frame   0x00000000       0x34 /usr/lib/gcc/arm-none-eabi/13.2.1/thumb/v7e-m+fp/hard/libgcc.a(_udivmoddi4.o)
 .ARM.attributes
                0x00000000       0x34 /usr/lib/gcc/arm-none-eabi/13.2.1/thumb/v7e-m+fp/hard/libgcc.a(_udivmoddi4.o)
 .text          0x00000000        0x4 /usr/lib/gcc/arm-none-eabi/13.2.1/thumb/v7e-m+fp/hard/libgcc.a(_dvmd_tls.o)
 .data          0x00000000        0x0 /usr/lib/gcc/arm-none-eabi/13.2.1/thumb/v7e-m+fp/hard/libgcc.a(_dvmd_tls.o)
 .bss           0x00000000        0x0 /usr/lib/gcc/arm-none-eabi/13.2.1/thumb/v7e-m+fp/hard/libgcc.a(_dvmd_tls.o)
 .debug_line    0x00000000       0x4a /usr/lib/gcc/arm-none-eabi/13.2.1/thumb/v7e-m+fp/hard/libgcc.a(_dvmd_tls.o)
 .debug_line_str
                0x00000000       0x9b /usr/lib/gcc/arm-none-eabi/13.2.1/thumb/v7e-m+fp/hard/libgcc.a(_dvmd_tls.o)
 .debug_info    0x00000000       0x3c /usr/lib/gcc/arm-none-eabi/13.2.1/thumb/v7e-m+fp/hard/libgcc.a(_dvmd_tls.o)
 .debug_abbrev  0x00000000       0x26 /usr/lib/gcc/arm-none-eabi/13.2.1/thumb/v7e-m+fp/hard/libgcc.a(_dvmd_tls.o)
 .debug_aranges
                0x00000000       0x20 /usr/lib/gcc/arm-none-eabi/13.2.1/thumb/v7e-m+fp/hard/libgcc.a(_dvmd_tls.o)
 .debug_str     0x00000000       0xc3 /usr/lib/gcc/arm-none-eabi/13.2.1/thumb/v7e-m+fp/hard/libgcc.a(_dvmd_tls.o)
 .ARM.attributes
                0x00000000       0x22 /usr/lib/gcc/arm-none-eabi/13.2.1/thumb/v7e-m+fp/hard/libgcc.a(_dvmd_tls.o)
 .text          0x00000000        0x0 /usr/lib/gcc/arm-none-eabi/13.2.1/thumb/v7e-m+fp/hard/crtend.o
 .data          0x00000000        0x0 /usr/lib/gcc/arm-none-eabi/13.2.1/thumb/v7e-m+fp/hard/crtend.o
 .bss           0x00000000        0x0 /usr/lib/gcc/arm-none-eabi/13.2.1/thumb/v7e-m+fp/hard/crtend.o
 .rodata        0x00000000       0x24 /usr/lib/gcc/arm-none-eabi/13.2.1/thumb/v7e-m+fp/hard/crtend.o
 .text          0x00000000        0x0 /usr/lib/gcc/arm-none-eabi/13.2.1/thumb/v7e-m+fp/hard/crtn.o
 .data          0x00000000        0x0 /usr/lib/gcc/arm-none-eabi/13.2.1/thumb/v7e-m+fp/hard/crtn.o
 .bss           0x00000000        0x0 /usr/lib/gcc/arm-none-eabi/13.2.1/thumb/v7e-m+fp/hard/crtn.o

Memory Configuration

Name             Origin             Length             Attributes
FLASH            0x00000000         0x00080000         xr
RAM              0x20000000         0x00020000         xrw
*default*        0x00000000         0xffffffff

Linker script and memory map

                0x0007f000                        __stop_ot_flash_data = ((ORIGIN (FLASH) + LENGTH (FLASH)) - FLASH_PAGE_SIZE)
                0x0007b000                        __start_ot_flash_data = (__stop_ot_flash_data - (FLASH_PAGE_SIZE * FLASH_DATA_PAGES_USED))
                0x00000001                        ASSERT ((__start_ot_flash_data >= (__etext + SIZEOF (.data))), Error: Code overlaps flash data area.)

.text           0x00000000     0xcfe4
 *(.isr_vector)
 .isr_vector    0x00000000      0x200 ../lilybuzzer/_build/gcc_startup_nrf52833.os
                0x00000000                __isr_vector
 *(.text*)
 .text          0x00000200       0x88 /usr/lib/gcc/arm-none-eabi/13.2.1/thumb/v7e-m+fp/hard/crtbegin.o
 .text          0x00000288       0x70 /usr/lib/gcc/arm-none-eabi/13.2.1/../../../arm-none-eabi/lib/thumb/v7e-m+fp/hard/crt0.o
                0x00000288                _stack_init
                0x00000290                _mainCRTStartup
                0x00000290                _start
 .text.startup.main
                0x000002f8      0x138 _build/main.o
                0x000002f8                main
 .text.read_reg
                0x00000430       0x64 _build/sx1509.o
 .text.write_reg.isra.0
                0x00000494       0x44 _build/sx1509.o
 .text.clear_pin_bit
                0x000004d8       0x2a _build/sx1509.o
 .text.set_pin_bit
                0x00000502       0x2a _build/sx1509.o
 .text.sx1509_is_connected
                0x0000052c       0x3c _build/sx1509.o
                0x0000052c                sx1509_is_connected
 .text.sx1509_init
                0x00000568       0x34 _build/sx1509.o
                0x00000568                sx1509_init
 .text.sx1509_pin_config_input_pullup
                0x0000059c       0x22 _build/sx1509.o
                0x0000059c                sx1509_pin_config_input_pullup
 .text.sx1509_pin_config_output
                0x000005be        0xe _build/sx1509.o
                0x000005be                sx1509_pin_config_output
 .text.sx1509_pin_read
                0x000005cc       0x24 _build/sx1509.o
                0x000005cc                sx1509_pin_read
 .text.sx1509_pin_clear
                0x000005f0        0xe _build/sx1509.o
                0x000005f0                sx1509_pin_clear
 .text.sx1509_pin_set
                0x000005fe        0xe _build/sx1509.o
                0x000005fe                sx1509_pin_set
 .text.sx1509_pin_write
                0x0000060c        0xa _build/sx1509.o
                0x0000060c                sx1509_pin_write
 *fill*         0x00000616        0x2 
 .text.lilybuzzer_init
                0x00000618       0x7c _build/lilybuzzer.o
                0x00000618                lilybuzzer_init
 .text.stop_buzzer
                0x00000694       0x1c _build/lilybuzzer.o
                0x00000694                stop_buzzer
 .text.play_curr_symbol
                0x000006b0       0xd4 _build/lilybuzzer.o
 .text.play_morse_message
                0x00000784       0x28 _build/lilybuzzer.o
                0x00000784                play_morse_message
 .text.keypad_read_input
                0x000007ac       0xa4 _build/keypad.o
 .text.keypad_init
                0x00000850       0x5c _build/keypad.o
                0x00000850                keypad_init
 .text.keypad_clear_input_record
                0x000008ac       0x20 _build/keypad.o
                0x000008ac                keypad_clear_input_record
 .text.keypad_get_input
                0x000008cc        0x8 _build/keypad.o
                0x000008cc                keypad_get_input
 .text.keypad_get_input_length
                0x000008d4        0xc _build/keypad.o
                0x000008d4                keypad_get_input_length
 .text.nrf_gpio_pin_port_decode
                0x000008e0       0x30 ../lilybuzzer/_build/better_error_handling.o
 .text.nrf_gpio_pin_clear
                0x00000910       0x1a ../lilybuzzer/_build/better_error_handling.o
 .text.nrf_gpio_pin_set
                0x0000092a       0x1a ../lilybuzzer/_build/better_error_handling.o
 .text.nrf_delay_ms.part.0
                0x00000944       0x1c ../lilybuzzer/_build/better_error_handling.o
 .text.error_blink_pattern
                0x00000960      0x104 ../lilybuzzer/_build/better_error_handling.o
 .text.app_error_fault_handler
                0x00000a64       0x70 ../lilybuzzer/_build/better_error_handling.o
                0x00000a64                app_error_fault_handler
 .text.HardFault_c_handler
                0x00000ad4       0xec ../lilybuzzer/_build/better_error_handling.o
                0x00000ad4                HardFault_c_handler
 .text.startup.called_first
                0x00000bc0       0x48 ../lilybuzzer/_build/microbit_before_startup.o
                0x00000bc0                called_first
 .text.nrf_log_backend_uart_flush
                0x00000c08        0x2 ../lilybuzzer/_build/microbit_nrf_log_backend_uart.o
 *fill*         0x00000c0a        0x2 
 .text.nrf_log_backend_uart_put
                0x00000c0c       0x1c ../lilybuzzer/_build/microbit_nrf_log_backend_uart.o
 .text.uart_init.constprop.0
                0x00000c28       0x54 ../lilybuzzer/_build/microbit_nrf_log_backend_uart.o
 .text.serial_tx
                0x00000c7c       0x50 ../lilybuzzer/_build/microbit_nrf_log_backend_uart.o
 .text.nrf_log_backend_uart_panic_set
                0x00000ccc       0x2c ../lilybuzzer/_build/microbit_nrf_log_backend_uart.o
 .text.nrf_log_backend_uart_init
                0x00000cf8        0x4 ../lilybuzzer/_build/microbit_nrf_log_backend_uart.o
                0x00000cf8                nrf_log_backend_uart_init
 .text._write   0x00000cfc       0x2c ../lilybuzzer/_build/microbit_retarget.o
                0x00000cfc                _write
 .text._read    0x00000d28       0x30 ../lilybuzzer/_build/microbit_retarget.o
                0x00000d28                _read
 .text.app_error_handler
                0x00000d58       0x1a ../lilybuzzer/_build/app_error_handler_gcc.o
                0x00000d58                app_error_handler
 *fill*         0x00000d72        0x2 
 .text.user_op_alloc
                0x00000d74       0x2c ../lilybuzzer/_build/app_timer.o
 .text.timer_stop_op_schedule
                0x00000da0       0x48 ../lilybuzzer/_build/app_timer.o
 .text.nrfx_coredep_delay_us.part.0.constprop.0
                0x00000de8       0x10 ../lilybuzzer/_build/app_timer.o
 .text.RTC1_IRQHandler
                0x00000df8       0x9c ../lilybuzzer/_build/app_timer.o
                0x00000df8                RTC1_IRQHandler
 .text.SWI0_EGU0_IRQHandler
                0x00000e94      0x2b0 ../lilybuzzer/_build/app_timer.o
                0x00000e94                SWI0_EGU0_IRQHandler
 .text.app_timer_init
                0x00001144       0x90 ../lilybuzzer/_build/app_timer.o
                0x00001144                app_timer_init
 .text.app_timer_create
                0x000011d4       0x24 ../lilybuzzer/_build/app_timer.o
                0x000011d4                app_timer_create
 .text.app_timer_start
                0x000011f8       0x8c ../lilybuzzer/_build/app_timer.o
                0x000011f8                app_timer_start
 .text.app_timer_stop
                0x00001284       0x20 ../lilybuzzer/_build/app_timer.o
                0x00001284                app_timer_stop
 .text.app_util_disable_irq
                0x000012a4       0x10 ../lilybuzzer/_build/app_util_platform.o
                0x000012a4                app_util_disable_irq
 .text.app_util_enable_irq
                0x000012b4       0x14 ../lilybuzzer/_build/app_util_platform.o
                0x000012b4                app_util_enable_irq
 .text.privilege_level_get
                0x000012c8       0x1a ../lilybuzzer/_build/app_util_platform.o
                0x000012c8                privilege_level_get
 *fill*         0x000012e2        0x2 
 .text.app_util_critical_region_enter
                0x000012e4       0x20 ../lilybuzzer/_build/app_util_platform.o
                0x000012e4                app_util_critical_region_enter
 .text.app_util_critical_region_exit
                0x00001304       0x20 ../lilybuzzer/_build/app_util_platform.o
                0x00001304                app_util_critical_region_exit
 .text.HardFault_Handler
                0x00001324       0x34 ../lilybuzzer/_build/hardfault_handler_gcc.o
                0x00001324                HardFault_Handler
 .text.assert_nrf_callback
                0x00001358       0x1a ../lilybuzzer/_build/nrf_assert.o
                0x00001358                assert_nrf_callback
 .text.nrf_atomic_u32_fetch_store
                0x00001372       0x16 ../lilybuzzer/_build/nrf_atomic.o
                0x00001372                nrf_atomic_u32_fetch_store
 .text.nrf_atomic_u32_or
                0x00001388       0x18 ../lilybuzzer/_build/nrf_atomic.o
                0x00001388                nrf_atomic_u32_or
 .text.nrf_atomic_u32_fetch_and
                0x000013a0       0x18 ../lilybuzzer/_build/nrf_atomic.o
                0x000013a0                nrf_atomic_u32_fetch_and
 .text.nrf_atomic_u32_add
                0x000013b8       0x18 ../lilybuzzer/_build/nrf_atomic.o
                0x000013b8                nrf_atomic_u32_add
 .text.nrf_atomic_u32_sub
                0x000013d0       0x18 ../lilybuzzer/_build/nrf_atomic.o
                0x000013d0                nrf_atomic_u32_sub
 .text.nrf_atomic_flag_set
                0x000013e8        0x6 ../lilybuzzer/_build/nrf_atomic.o
                0x000013e8                nrf_atomic_flag_set
 .text.nrf_atomic_flag_clear_fetch
                0x000013ee        0x6 ../lilybuzzer/_build/nrf_atomic.o
                0x000013ee                nrf_atomic_flag_clear_fetch
 .text.nrf_balloc_init
                0x000013f4       0x7c ../lilybuzzer/_build/nrf_balloc.o
                0x000013f4                nrf_balloc_init
 .text.nrf_balloc_alloc
                0x00001470       0x54 ../lilybuzzer/_build/nrf_balloc.o
                0x00001470                nrf_balloc_alloc
 .text.nrf_balloc_free
                0x000014c4       0x48 ../lilybuzzer/_build/nrf_balloc.o
                0x000014c4                nrf_balloc_free
 .text.twim_evt_handler
                0x0000150c       0x40 ../lilybuzzer/_build/nrf_drv_twi.o
 .text.nrf_gpio_pin_port_decode
                0x0000154c       0x30 ../lilybuzzer/_build/nrf_drv_twi.o
 .text.nrf_gpio_pin_set
                0x0000157c       0x1a ../lilybuzzer/_build/nrf_drv_twi.o
 *fill*         0x00001596        0x2 
 .text.nrfx_coredep_delay_us.part.0.constprop.0
                0x00001598       0x10 ../lilybuzzer/_build/nrf_drv_twi.o
 .text.nrf_drv_twi_init
                0x000015a8       0xec ../lilybuzzer/_build/nrf_drv_twi.o
                0x000015a8                nrf_drv_twi_init
 .text.uarte_evt_handler
                0x00001694       0x34 ../lilybuzzer/_build/nrf_drv_uart.o
 .text.uart_evt_handler
                0x000016c8       0x34 ../lilybuzzer/_build/nrf_drv_uart.o
 .text.nrf_drv_uart_init
                0x000016fc       0x7c ../lilybuzzer/_build/nrf_drv_uart.o
                0x000016fc                nrf_drv_uart_init
 .text.nrf_fprintf_buffer_flush
                0x00001778       0x24 ../lilybuzzer/_build/nrf_fprintf.o
                0x00001778                nrf_fprintf_buffer_flush
 .text.nrf_fprintf
                0x0000179c       0x54 ../lilybuzzer/_build/nrf_fprintf.o
                0x0000179c                nrf_fprintf
 .text.buffer_add
                0x000017f0       0x1e ../lilybuzzer/_build/nrf_fprintf_format.o
 *fill*         0x0000180e        0x2 
 .text.unsigned_print
                0x00001810       0xb4 ../lilybuzzer/_build/nrf_fprintf_format.o
 .text.nrf_fprintf_fmt
                0x000018c4      0x2f8 ../lilybuzzer/_build/nrf_fprintf_format.o
                0x000018c4                nrf_fprintf_fmt
 .text.nrf_log_backend_serial_put
                0x00001bbc       0xc2 ../lilybuzzer/_build/nrf_log_backend_serial.o
                0x00001bbc                nrf_log_backend_serial_put
 *fill*         0x00001c7e        0x2 
 .text.nrf_log_default_backends_init
                0x00001c80       0x30 ../lilybuzzer/_build/nrf_log_default_backends.o
                0x00001c80                nrf_log_default_backends_init
 .text.invalid_packets_omit
                0x00001cb0       0x38 ../lilybuzzer/_build/nrf_log_frontend.o
 .text.buf_prealloc
                0x00001ce8      0x140 ../lilybuzzer/_build/nrf_log_frontend.o
 .text.nrf_log_init
                0x00001e28       0x3c ../lilybuzzer/_build/nrf_log_frontend.o
                0x00001e28                nrf_log_init
 .text.nrf_log_module_name_get
                0x00001e64       0x38 ../lilybuzzer/_build/nrf_log_frontend.o
                0x00001e64                nrf_log_module_name_get
 .text.nrf_log_color_id_get
                0x00001e9c       0x2c ../lilybuzzer/_build/nrf_log_frontend.o
                0x00001e9c                nrf_log_color_id_get
 .text.buffer_is_empty
                0x00001ec8       0x14 ../lilybuzzer/_build/nrf_log_frontend.o
                0x00001ec8                buffer_is_empty
 .text.nrf_log_frontend_dequeue
                0x00001edc      0x220 ../lilybuzzer/_build/nrf_log_frontend.o
                0x00001edc                nrf_log_frontend_dequeue
 .text.std_n    0x000020fc       0xb8 ../lilybuzzer/_build/nrf_log_frontend.o
 .text.nrf_log_frontend_std_0
                0x000021b4        0x8 ../lilybuzzer/_build/nrf_log_frontend.o
                0x000021b4                nrf_log_frontend_std_0
 .text.nrf_log_frontend_std_1
                0x000021bc       0x12 ../lilybuzzer/_build/nrf_log_frontend.o
                0x000021bc                nrf_log_frontend_std_1
 .text.nrf_log_frontend_std_3
                0x000021ce       0x18 ../lilybuzzer/_build/nrf_log_frontend.o
                0x000021ce                nrf_log_frontend_std_3
 .text.nrf_log_frontend_std_4
                0x000021e6       0x1c ../lilybuzzer/_build/nrf_log_frontend.o
                0x000021e6                nrf_log_frontend_std_4
 *fill*         0x00002202        0x2 
 .text.nrf_log_backend_add
                0x00002204       0x54 ../lilybuzzer/_build/nrf_log_frontend.o
                0x00002204                nrf_log_backend_add
 .text.nrf_log_panic
                0x00002258       0x28 ../lilybuzzer/_build/nrf_log_frontend.o
                0x00002258                nrf_log_panic
 .text.postfix_process
                0x00002280       0x3c ../lilybuzzer/_build/nrf_log_str_formatter.o
 .text.prefix_process.constprop.0
                0x000022bc       0x78 ../lilybuzzer/_build/nrf_log_str_formatter.o
 .text.nrf_log_std_entry_process
                0x00002334       0xc8 ../lilybuzzer/_build/nrf_log_str_formatter.o
                0x00002334                nrf_log_std_entry_process
 .text.nrf_log_hexdump_entry_process
                0x000023fc       0xbc ../lilybuzzer/_build/nrf_log_str_formatter.o
                0x000023fc                nrf_log_hexdump_entry_process
 .text.memobj_op
                0x000024b8       0xa8 ../lilybuzzer/_build/nrf_memobj.o
 .text.nrf_memobj_pool_init
                0x00002560        0x4 ../lilybuzzer/_build/nrf_memobj.o
                0x00002560                nrf_memobj_pool_init
 .text.nrf_memobj_free
                0x00002564       0x2c ../lilybuzzer/_build/nrf_memobj.o
                0x00002564                nrf_memobj_free
 .text.nrf_memobj_alloc
                0x00002590       0x58 ../lilybuzzer/_build/nrf_memobj.o
                0x00002590                nrf_memobj_alloc
 .text.nrf_memobj_get
                0x000025e8        0x8 ../lilybuzzer/_build/nrf_memobj.o
                0x000025e8                nrf_memobj_get
 .text.nrf_memobj_put
                0x000025f0       0x1c ../lilybuzzer/_build/nrf_memobj.o
                0x000025f0                nrf_memobj_put
 .text.nrf_memobj_write
                0x0000260c       0x2c ../lilybuzzer/_build/nrf_memobj.o
                0x0000260c                nrf_memobj_write
 .text.nrf_memobj_read
                0x00002638       0x30 ../lilybuzzer/_build/nrf_memobj.o
                0x00002638                nrf_memobj_read
 .text.queue_utilization_get
                0x00002668       0x18 ../lilybuzzer/_build/nrf_queue.o
 .text.nrf_queue_next_idx
                0x00002680       0x20 ../lilybuzzer/_build/nrf_queue.o
 .text.nrf_queue_is_full
                0x000026a0       0x28 ../lilybuzzer/_build/nrf_queue.o
                0x000026a0                nrf_queue_is_full
 .text.nrf_queue_push
                0x000026c8       0xc4 ../lilybuzzer/_build/nrf_queue.o
                0x000026c8                nrf_queue_push
 .text.nrf_queue_is_empty
                0x0000278c       0x24 ../lilybuzzer/_build/nrf_queue.o
                0x0000278c                nrf_queue_is_empty
 .text.nrf_queue_generic_pop
                0x000027b0       0x9c ../lilybuzzer/_build/nrf_queue.o
                0x000027b0                nrf_queue_generic_pop
 .text.nrf_ringbuf_init
                0x0000284c       0x1c ../lilybuzzer/_build/nrf_ringbuf.o
                0x0000284c                nrf_ringbuf_init
 .text.nrf_strerror_find
                0x00002868       0x34 ../lilybuzzer/_build/nrf_strerror.o
                0x00002868                nrf_strerror_find
 .text.nrf_strerror_get
                0x0000289c       0x14 ../lilybuzzer/_build/nrf_strerror.o
                0x0000289c                nrf_strerror_get
 .text.internal_transaction_cb
                0x000028b0        0xa ../lilybuzzer/_build/nrf_twi_mngr.o
 *fill*         0x000028ba        0x2 
 .text.transaction_end_signal
                0x000028bc       0x30 ../lilybuzzer/_build/nrf_twi_mngr.o
 .text.start_transfer
                0x000028ec       0xc4 ../lilybuzzer/_build/nrf_twi_mngr.o
 .text.start_pending_transaction
                0x000029b0       0xb0 ../lilybuzzer/_build/nrf_twi_mngr.o
 .text.twi_event_handler
                0x00002a60       0x58 ../lilybuzzer/_build/nrf_twi_mngr.o
 .text.nrf_twi_mngr_init
                0x00002ab8       0x78 ../lilybuzzer/_build/nrf_twi_mngr.o
                0x00002ab8                nrf_twi_mngr_init
 .text.nrf_twi_mngr_schedule
                0x00002b30       0x60 ../lilybuzzer/_build/nrf_twi_mngr.o
                0x00002b30                nrf_twi_mngr_schedule
 .text.nrf_twi_mngr_perform
                0x00002b90       0x84 ../lilybuzzer/_build/nrf_twi_mngr.o
                0x00002b90                nrf_twi_mngr_perform
 .text.POWER_CLOCK_IRQHandler
                0x00002c14       0x5c ../lilybuzzer/_build/nrfx_clock.o
                0x00002c14                POWER_CLOCK_IRQHandler
 .text.nrf_gpiote_event_clear
                0x00002c70       0x18 ../lilybuzzer/_build/nrfx_gpiote.o
 .text.nrf_bitmask_bit_set
                0x00002c88       0x12 ../lilybuzzer/_build/nrfx_gpiote.o
 *fill*         0x00002c9a        0x2 
 .text.nrf_gpio_pin_port_decode
                0x00002c9c       0x30 ../lilybuzzer/_build/nrfx_gpiote.o
 .text.nrf_gpio_cfg_sense_set
                0x00002ccc       0x2e ../lilybuzzer/_build/nrfx_gpiote.o
 *fill*         0x00002cfa        0x2 
 .text.nrf_gpio_ports_read.constprop.0
                0x00002cfc       0x18 ../lilybuzzer/_build/nrfx_gpiote.o
 .text.GPIOTE_IRQHandler
                0x00002d14      0x19c ../lilybuzzer/_build/nrfx_gpiote.o
                0x00002d14                GPIOTE_IRQHandler
 .text.UARTE0_UART0_IRQHandler
                0x00002eb0       0x20 ../lilybuzzer/_build/nrfx_prs.o
                0x00002eb0                UARTE0_UART0_IRQHandler
 .text.nrfx_prs_acquire
                0x00002ed0       0x44 ../lilybuzzer/_build/nrfx_prs.o
                0x00002ed0                nrfx_prs_acquire
 .text.nrfx_prs_release
                0x00002f14       0x28 ../lilybuzzer/_build/nrfx_prs.o
                0x00002f14                nrfx_prs_release
 .text.nrf_pwm_event_clear
                0x00002f3c       0x10 ../lilybuzzer/_build/nrfx_pwm.o
 .text.start_playback
                0x00002f4c       0x4c ../lilybuzzer/_build/nrfx_pwm.o
 .text.irq_handler
                0x00002f98       0x80 ../lilybuzzer/_build/nrfx_pwm.o
 .text.nrf_gpio_pin_port_decode
                0x00003018       0x30 ../lilybuzzer/_build/nrfx_pwm.o
 .text.nrf_pwm_sequence_set
                0x00003048       0x88 ../lilybuzzer/_build/nrfx_pwm.o
 .text.nrfx_pwm_init
                0x000030d0      0x1b0 ../lilybuzzer/_build/nrfx_pwm.o
                0x000030d0                nrfx_pwm_init
 .text.nrfx_pwm_simple_playback
                0x00003280       0xa4 ../lilybuzzer/_build/nrfx_pwm.o
                0x00003280                nrfx_pwm_simple_playback
 .text.nrfx_pwm_is_stopped
                0x00003324       0x40 ../lilybuzzer/_build/nrfx_pwm.o
                0x00003324                nrfx_pwm_is_stopped
 .text.nrfx_pwm_stop
                0x00003364       0x48 ../lilybuzzer/_build/nrfx_pwm.o
                0x00003364                nrfx_pwm_stop
 .text.PWM0_IRQHandler
                0x000033ac       0x10 ../lilybuzzer/_build/nrfx_pwm.o
                0x000033ac                PWM0_IRQHandler
 .text.PWM1_IRQHandler
                0x000033bc       0x10 ../lilybuzzer/_build/nrfx_pwm.o
                0x000033bc                PWM1_IRQHandler
 .text.nrf_saadc_event_clear
                0x000033cc       0x18 ../lilybuzzer/_build/nrfx_saadc.o
 .text.SAADC_IRQHandler
                0x000033e4      0x15c ../lilybuzzer/_build/nrfx_saadc.o
                0x000033e4                SAADC_IRQHandler
 .text.nrf_gpio_pin_port_decode
                0x00003540       0x30 ../lilybuzzer/_build/nrfx_spim.o
 .text.nrf_gpio_pin_clear
                0x00003570       0x1a ../lilybuzzer/_build/nrfx_spim.o
 .text.nrf_gpio_pin_set
                0x0000358a       0x1a ../lilybuzzer/_build/nrfx_spim.o
 .text.SPIM2_SPIS2_SPI2_IRQHandler
                0x000035a4       0x64 ../lilybuzzer/_build/nrfx_spim.o
                0x000035a4                SPIM2_SPIS2_SPI2_IRQHandler
 .text.irq_handler.constprop.0
                0x00003608       0x4c ../lilybuzzer/_build/nrfx_timer.o
 .text.TIMER0_IRQHandler
                0x00003654       0x10 ../lilybuzzer/_build/nrfx_timer.o
                0x00003654                TIMER0_IRQHandler
 .text.TIMER1_IRQHandler
                0x00003664       0x10 ../lilybuzzer/_build/nrfx_timer.o
                0x00003664                TIMER1_IRQHandler
 .text.nrf_twim_event_clear
                0x00003674       0x10 ../lilybuzzer/_build/nrfx_twim.o
 .text.xfer_completeness_check
                0x00003684       0x6c ../lilybuzzer/_build/nrfx_twim.o
 .text.nrf_gpio_pin_port_decode
                0x000036f0       0x30 ../lilybuzzer/_build/nrfx_twim.o
 .text.twim_irq_handler
                0x00003720      0x138 ../lilybuzzer/_build/nrfx_twim.o
 .text.SPIM0_SPIS0_TWIM0_TWIS0_SPI0_TWI0_IRQHandler
                0x00003858       0x10 ../lilybuzzer/_build/nrfx_twim.o
                0x00003858                SPIM0_SPIS0_TWIM0_TWIS0_SPI0_TWI0_IRQHandler
 .text.SPIM1_SPIS1_TWIM1_TWIS1_SPI1_TWI1_IRQHandler
                0x00003868       0x10 ../lilybuzzer/_build/nrfx_twim.o
                0x00003868                SPIM1_SPIS1_TWIM1_TWIS1_SPI1_TWI1_IRQHandler
 .text.nrfx_twim_init
                0x00003878      0x138 ../lilybuzzer/_build/nrfx_twim.o
                0x00003878                nrfx_twim_init
 .text.nrfx_twim_enable
                0x000039b0       0x40 ../lilybuzzer/_build/nrfx_twim.o
                0x000039b0                nrfx_twim_enable
 .text.nrfx_twim_disable
                0x000039f0       0x54 ../lilybuzzer/_build/nrfx_twim.o
                0x000039f0                nrfx_twim_disable
 .text.nrfx_twim_uninit
                0x00003a44       0xb4 ../lilybuzzer/_build/nrfx_twim.o
                0x00003a44                nrfx_twim_uninit
 .text.nrfx_twim_xfer
                0x00003af8      0x320 ../lilybuzzer/_build/nrfx_twim.o
                0x00003af8                nrfx_twim_xfer
 .text.nrf_uart_event_clear
                0x00003e18       0x10 ../lilybuzzer/_build/nrfx_uart.o
 .text.tx_byte  0x00003e28       0x1e ../lilybuzzer/_build/nrfx_uart.o
 .text.rx_enable
                0x00003e46       0x20 ../lilybuzzer/_build/nrfx_uart.o
 *fill*         0x00003e66        0x2 
 .text.nrf_gpio_pin_port_decode
                0x00003e68       0x30 ../lilybuzzer/_build/nrfx_uart.o
 .text.nrf_gpio_cfg_default
                0x00003e98       0x1c ../lilybuzzer/_build/nrfx_uart.o
 .text.rx_byte  0x00003eb4       0x2c ../lilybuzzer/_build/nrfx_uart.o
 .text.rx_done_event.constprop.0
                0x00003ee0       0x20 ../lilybuzzer/_build/nrfx_uart.o
 .text.nrfx_uart_0_irq_handler
                0x00003f00      0x144 ../lilybuzzer/_build/nrfx_uart.o
                0x00003f00                nrfx_uart_0_irq_handler
 .text.nrfx_uart_init
                0x00004044      0x1d8 ../lilybuzzer/_build/nrfx_uart.o
                0x00004044                nrfx_uart_init
 .text.nrfx_uart_uninit
                0x0000421c       0xc0 ../lilybuzzer/_build/nrfx_uart.o
                0x0000421c                nrfx_uart_uninit
 .text.nrfx_uart_tx_in_progress
                0x000042dc       0x18 ../lilybuzzer/_build/nrfx_uart.o
                0x000042dc                nrfx_uart_tx_in_progress
 .text.nrfx_uart_tx
                0x000042f4       0xe0 ../lilybuzzer/_build/nrfx_uart.o
                0x000042f4                nrfx_uart_tx
 .text.nrfx_uart_rx
                0x000043d4      0x128 ../lilybuzzer/_build/nrfx_uart.o
                0x000043d4                nrfx_uart_rx
 .text.nrf_uarte_event_clear
                0x000044fc       0x10 ../lilybuzzer/_build/nrfx_uarte.o
 .text.nrf_gpio_pin_port_decode
                0x0000450c       0x30 ../lilybuzzer/_build/nrfx_uarte.o
 .text.nrf_gpio_cfg_default
                0x0000453c       0x1c ../lilybuzzer/_build/nrfx_uarte.o
 .text.rx_done_event.constprop.0
                0x00004558       0x20 ../lilybuzzer/_build/nrfx_uarte.o
 .text.nrfx_uarte_0_irq_handler
                0x00004578      0x118 ../lilybuzzer/_build/nrfx_uarte.o
                0x00004578                nrfx_uarte_0_irq_handler
 .text.nrfx_uarte_init
                0x00004690      0x1f0 ../lilybuzzer/_build/nrfx_uarte.o
                0x00004690                nrfx_uarte_init
 .text.nrfx_uarte_uninit
                0x00004880       0xec ../lilybuzzer/_build/nrfx_uarte.o
                0x00004880                nrfx_uarte_uninit
 .text.nrfx_uarte_tx_in_progress
                0x0000496c       0x18 ../lilybuzzer/_build/nrfx_uarte.o
                0x0000496c                nrfx_uarte_tx_in_progress
 .text.nrfx_uarte_tx
                0x00004984       0xf0 ../lilybuzzer/_build/nrfx_uarte.o
                0x00004984                nrfx_uarte_tx
 .text.nrfx_uarte_rx
                0x00004a74      0x13c ../lilybuzzer/_build/nrfx_uarte.o
                0x00004a74                nrfx_uarte_rx
 .text.__NVIC_SystemReset
                0x00004bb0       0x24 ../lilybuzzer/_build/system_nrf52833.o
 .text.errata_36
                0x00004bd4       0x1a ../lilybuzzer/_build/system_nrf52833.o
 *fill*         0x00004bee        0x2 
 .text.SystemInit
                0x00004bf0      0x19c ../lilybuzzer/_build/system_nrf52833.o
                0x00004bf0                SystemInit
 .text          0x00004d8c       0x3c ../lilybuzzer/_build/gcc_startup_nrf52833.os
                0x00004d8c                Reset_Handler
                0x00004db4                NMI_Handler
                0x00004db8                MemoryManagement_Handler
                0x00004dba                BusFault_Handler
                0x00004dbc                UsageFault_Handler
                0x00004dbe                SVC_Handler
                0x00004dc0                DebugMon_Handler
                0x00004dc2                PendSV_Handler
                0x00004dc4                SysTick_Handler
                0x00004dc6                TIMER2_IRQHandler
                0x00004dc6                RTC0_IRQHandler
                0x00004dc6                SWI2_EGU2_IRQHandler
                0x00004dc6                RADIO_IRQHandler
                0x00004dc6                PDM_IRQHandler
                0x00004dc6                TEMP_IRQHandler
                0x00004dc6                QDEC_IRQHandler
                0x00004dc6                TIMER3_IRQHandler
                0x00004dc6                PWM3_IRQHandler
                0x00004dc6                FPU_IRQHandler
                0x00004dc6                USBD_IRQHandler
                0x00004dc6                TIMER4_IRQHandler
                0x00004dc6                I2S_IRQHandler
                0x00004dc6                SWI4_EGU4_IRQHandler
                0x00004dc6                UARTE1_IRQHandler
                0x00004dc6                SPIM3_IRQHandler
                0x00004dc6                PWM2_IRQHandler
                0x00004dc6                ECB_IRQHandler
                0x00004dc6                Default_Handler
                0x00004dc6                CCM_AAR_IRQHandler
                0x00004dc6                WDT_IRQHandler
                0x00004dc6                SWI5_EGU5_IRQHandler
                0x00004dc6                RNG_IRQHandler
                0x00004dc6                RTC2_IRQHandler
                0x00004dc6                SWI3_EGU3_IRQHandler
                0x00004dc6                SWI1_EGU1_IRQHandler
                0x00004dc6                NFCT_IRQHandler
                0x00004dc6                MWU_IRQHandler
                0x00004dc6                COMP_LPCOMP_IRQHandler
 *fill*         0x00004dc8       0x38 
 .text          0x00004e00       0xd8 /usr/lib/gcc/arm-none-eabi/13.2.1/../../../arm-none-eabi/lib/thumb/v7e-m+fp/hard/libc.a(libc_a-strlen.o)
                0x00004e00                strlen
 .text          0x00004ed8       0xa4 /usr/lib/gcc/arm-none-eabi/13.2.1/../../../arm-none-eabi/lib/thumb/v7e-m+fp/hard/libc.a(libc_a-memset.o)
                0x00004ed8                memset
 .text          0x00004f7c       0x10 /usr/lib/gcc/arm-none-eabi/13.2.1/../../../arm-none-eabi/lib/thumb/v7e-m+fp/hard/libc.a(libc_a-setbuf.o)
                0x00004f7c                setbuf
 .text          0x00004f8c       0x5c /usr/lib/gcc/arm-none-eabi/13.2.1/../../../arm-none-eabi/lib/thumb/v7e-m+fp/hard/libc.a(libc_a-memcmp.o)
                0x00004f8c                memcmp
 .text          0x00004fe8      0x134 /usr/lib/gcc/arm-none-eabi/13.2.1/../../../arm-none-eabi/lib/thumb/v7e-m+fp/hard/libc.a(libc_a-memcpy.o)
                0x00004fe8                memcpy
 .text          0x0000511c       0x50 /usr/lib/gcc/arm-none-eabi/13.2.1/../../../arm-none-eabi/lib/thumb/v7e-m+fp/hard/libc.a(libc_a-init.o)
                0x0000511c                __libc_init_array
 .text          0x0000516c      0x224 /usr/lib/gcc/arm-none-eabi/13.2.1/../../../arm-none-eabi/lib/thumb/v7e-m+fp/hard/libc.a(libc_a-findfp.o)
                0x0000529c                __sfp
                0x00005340                __sinit
                0x00005360                __sfp_lock_acquire
                0x00005364                __sfp_lock_release
                0x00005368                __fp_lock_all
                0x0000537c                __fp_unlock_all
 .text          0x00005390       0x1c /usr/lib/gcc/arm-none-eabi/13.2.1/../../../arm-none-eabi/lib/thumb/v7e-m+fp/hard/libc.a(libc_a-exit.o)
                0x00005390                exit
 .text          0x000053ac        0xc /usr/lib/gcc/arm-none-eabi/13.2.1/../../../arm-none-eabi/lib/thumb/v7e-m+fp/hard/libc.a(libc_a-atexit.o)
                0x000053ac                atexit
 .text          0x000053b8       0x48 /usr/lib/gcc/arm-none-eabi/13.2.1/../../../arm-none-eabi/lib/thumb/v7e-m+fp/hard/libc.a(libc_a-printf.o)
                0x000053b8                _printf_r
                0x000053d8                printf
 .text          0x00005400       0x28 /usr/lib/gcc/arm-none-eabi/13.2.1/../../../arm-none-eabi/lib/thumb/v7e-m+fp/hard/libc.a(libc_a-fini.o)
                0x00005400                __libc_fini_array
 .text          0x00005428       0x44 /usr/lib/gcc/arm-none-eabi/13.2.1/../../../arm-none-eabi/lib/thumb/v7e-m+fp/hard/libc.a(libc_a-fwalk.o)
                0x00005428                _fwalk_sglue
 *fill*         0x0000546c        0x4 
 .text          0x00005470     0x14ac /usr/lib/gcc/arm-none-eabi/13.2.1/../../../arm-none-eabi/lib/thumb/v7e-m+fp/hard/libc.a(libc_a-vfprintf.o)
                0x00005470                _vfprintf_r
                0x00006894                vfprintf
 *fill*         0x0000691c        0x4 
 .text          0x00006920       0xa0 /usr/lib/gcc/arm-none-eabi/13.2.1/../../../arm-none-eabi/lib/thumb/v7e-m+fp/hard/libc.a(libc_a-memchr.o)
                0x00006920                memchr
 .text          0x000069c0      0x1ac /usr/lib/gcc/arm-none-eabi/13.2.1/../../../arm-none-eabi/lib/thumb/v7e-m+fp/hard/libc.a(libc_a-fflush.o)
                0x000069c0                __sflush_r
                0x00006af8                _fflush_r
                0x00006b24                fflush
 .text          0x00006b6c      0x164 /usr/lib/gcc/arm-none-eabi/13.2.1/../../../arm-none-eabi/lib/thumb/v7e-m+fp/hard/libc.a(libc_a-setvbuf.o)
                0x00006b6c                setvbuf
 .text          0x00006cd0      0x554 /usr/lib/gcc/arm-none-eabi/13.2.1/../../../arm-none-eabi/lib/thumb/v7e-m+fp/hard/libc.a(libc_a-mallocr.o)
                0x00006cd0                _malloc_r
 *fill*         0x00007224        0x4 
 .text          0x00007228      0xfb0 /usr/lib/gcc/arm-none-eabi/13.2.1/../../../arm-none-eabi/lib/thumb/v7e-m+fp/hard/libc.a(libc_a-dtoa.o)
                0x00007354                _dtoa_r
 .text          0x000081d8       0xc4 /usr/lib/gcc/arm-none-eabi/13.2.1/../../../arm-none-eabi/lib/thumb/v7e-m+fp/hard/libc.a(libc_a-wsetup.o)
                0x000081d8                __swsetup_r
 .text          0x0000829c      0x2b0 /usr/lib/gcc/arm-none-eabi/13.2.1/../../../arm-none-eabi/lib/thumb/v7e-m+fp/hard/libc.a(libc_a-freer.o)
                0x0000829c                _malloc_trim_r
                0x00008354                _free_r
 .text          0x0000854c       0x90 /usr/lib/gcc/arm-none-eabi/13.2.1/../../../arm-none-eabi/lib/thumb/v7e-m+fp/hard/libc.a(libc_a-fclose.o)
                0x0000854c                _fclose_r
                0x000085cc                fclose
 .text          0x000085dc       0xb0 /usr/lib/gcc/arm-none-eabi/13.2.1/../../../arm-none-eabi/lib/thumb/v7e-m+fp/hard/libc.a(libc_a-__call_atexit.o)
                0x000085dc                __call_exitprocs
 .text.startup  0x0000868c       0x14 /usr/lib/gcc/arm-none-eabi/13.2.1/../../../arm-none-eabi/lib/thumb/v7e-m+fp/hard/libc.a(libc_a-__call_atexit.o)
 .text          0x000086a0       0x20 /usr/lib/gcc/arm-none-eabi/13.2.1/../../../arm-none-eabi/lib/thumb/v7e-m+fp/hard/libc.a(libc_a-malloc.o)
                0x000086a0                malloc
                0x000086b0                free
 .text          0x000086c0       0x1c /usr/lib/gcc/arm-none-eabi/13.2.1/../../../arm-none-eabi/lib/thumb/v7e-m+fp/hard/libc.a(libc_a-sysconf.o)
                0x000086c0                sysconf
 .text          0x000086dc       0x94 /usr/lib/gcc/arm-none-eabi/13.2.1/../../../arm-none-eabi/lib/thumb/v7e-m+fp/hard/libc.a(libc_a-stdio.o)
                0x000086dc                __sread
                0x00008700                __seofread
                0x00008704                __swrite
                0x00008744                __sseek
                0x00008768                __sclose
 .text          0x00008770       0x64 /usr/lib/gcc/arm-none-eabi/13.2.1/../../../arm-none-eabi/lib/thumb/v7e-m+fp/hard/libc.a(libc_a-__atexit.o)
                0x00008770                __register_exitproc
 .text          0x000087d4       0x2c /usr/lib/gcc/arm-none-eabi/13.2.1/../../../arm-none-eabi/lib/thumb/v7e-m+fp/hard/libc.a(libc_a-writer.o)
                0x000087d4                _write_r
 .text          0x00008800        0x8 /usr/lib/gcc/arm-none-eabi/13.2.1/../../../arm-none-eabi/lib/thumb/v7e-m+fp/hard/libc.a(libc_a-mlock.o)
                0x00008800                __malloc_lock
                0x00008804                __malloc_unlock
 .text          0x00008808       0x24 /usr/lib/gcc/arm-none-eabi/13.2.1/../../../arm-none-eabi/lib/thumb/v7e-m+fp/hard/libc.a(libc_a-sbrkr.o)
                0x00008808                _sbrk_r
 .text          0x0000882c       0x24 /usr/lib/gcc/arm-none-eabi/13.2.1/../../../arm-none-eabi/lib/thumb/v7e-m+fp/hard/libc.a(libc_a-closer.o)
                0x0000882c                _close_r
 .text          0x00008850       0x20 /usr/lib/gcc/arm-none-eabi/13.2.1/../../../arm-none-eabi/lib/thumb/v7e-m+fp/hard/libc.a(libc_a-sprint_r.o)
                0x00008850                __sprint_r
 .text          0x00008870       0x4c /usr/lib/gcc/arm-none-eabi/13.2.1/../../../arm-none-eabi/lib/thumb/v7e-m+fp/hard/libc.a(libc_a-assert.o)
                0x00008870                __assert_func
                0x000088b0                __assert
 .text          0x000088bc      0xab8 /usr/lib/gcc/arm-none-eabi/13.2.1/../../../arm-none-eabi/lib/thumb/v7e-m+fp/hard/libc.a(libc_a-mprec.o)
                0x000088bc                _Balloc
                0x00008908                _Bfree
                0x0000891c                __multadd
                0x000089bc                __s2b
                0x00008a70                __hi0bits
                0x00008ab4                __lo0bits
                0x00008b14                __i2b
                0x00008b70                __multiply
                0x00008cdc                __pow5mult
                0x00008d90                __lshift
                0x00008e80                __mcmp
                0x00008ec4                __mdiff
                0x0000903c                __ulp
                0x000090a0                __b2d
                0x0000915c                __d2b
                0x0000921c                __ratio
                0x0000927c                _mprec_log10
                0x000092bc                __copybits
                0x00009318                __any_on
 .text          0x00009374       0x14 /usr/lib/gcc/arm-none-eabi/13.2.1/../../../arm-none-eabi/lib/thumb/v7e-m+fp/hard/libc.a(libc_a-localeconv.o)
                0x00009374                __localeconv_l
                0x00009378                _localeconv_r
                0x00009380                localeconv
 .text          0x00009388      0x13c /usr/lib/gcc/arm-none-eabi/13.2.1/../../../arm-none-eabi/lib/thumb/v7e-m+fp/hard/libc.a(libc_a-makebuf.o)
                0x00009388                __smakebuf_r
                0x00009464                __swhatbuf_r
 .text          0x000094c4       0x40 /usr/lib/gcc/arm-none-eabi/13.2.1/../../../arm-none-eabi/lib/thumb/v7e-m+fp/hard/libc.a(libc_a-mbtowc_r.o)
                0x000094c4                _mbtowc_r
                0x000094d8                __ascii_mbtowc
 .text          0x00009504        0xc /usr/lib/gcc/arm-none-eabi/13.2.1/../../../arm-none-eabi/lib/thumb/v7e-m+fp/hard/libc.a(libc_a-errno.o)
                0x00009504                __errno
 .text          0x00009510       0x10 /usr/lib/gcc/arm-none-eabi/13.2.1/../../../arm-none-eabi/lib/thumb/v7e-m+fp/hard/libc.a(libc_a-abort.o)
                0x00009510                abort
 .text          0x00009520       0x6c /usr/lib/gcc/arm-none-eabi/13.2.1/../../../arm-none-eabi/lib/thumb/v7e-m+fp/hard/libc.a(libc_a-callocr.o)
                0x00009520                _calloc_r
 .text          0x0000958c       0x2c /usr/lib/gcc/arm-none-eabi/13.2.1/../../../arm-none-eabi/lib/thumb/v7e-m+fp/hard/libc.a(libc_a-readr.o)
                0x0000958c                _read_r
 .text          0x000095b8       0x44 /usr/lib/gcc/arm-none-eabi/13.2.1/../../../arm-none-eabi/lib/thumb/v7e-m+fp/hard/libc.a(libc_a-fiprintf.o)
                0x000095b8                _fiprintf_r
                0x000095d4                fiprintf
 .text          0x000095fc       0x30 /usr/lib/gcc/arm-none-eabi/13.2.1/../../../arm-none-eabi/lib/thumb/v7e-m+fp/hard/libc.a(libc_a-wctomb_r.o)
                0x000095fc                _wctomb_r
                0x00009610                __ascii_wctomb
 .text          0x0000962c       0x2c /usr/lib/gcc/arm-none-eabi/13.2.1/../../../arm-none-eabi/lib/thumb/v7e-m+fp/hard/libc.a(libc_a-lseekr.o)
                0x0000962c                _lseek_r
 .text          0x00009658       0x2c /usr/lib/gcc/arm-none-eabi/13.2.1/../../../arm-none-eabi/lib/thumb/v7e-m+fp/hard/libc.a(libc_a-fstatr.o)
                0x00009658                _fstat_r
 .text          0x00009684       0x24 /usr/lib/gcc/arm-none-eabi/13.2.1/../../../arm-none-eabi/lib/thumb/v7e-m+fp/hard/libc.a(libc_a-isattyr.o)
                0x00009684                _isatty_r
 .text          0x000096a8      0x300 /usr/lib/gcc/arm-none-eabi/13.2.1/../../../arm-none-eabi/lib/thumb/v7e-m+fp/hard/libc.a(libc_a-fvwrite.o)
                0x000096a8                __sfvwrite_r
 .text          0x000099a8      0x280 /usr/lib/gcc/arm-none-eabi/13.2.1/../../../arm-none-eabi/lib/thumb/v7e-m+fp/hard/libc.a(libc_a-signal.o)
                0x000099a8                _init_signal_r
                0x000099d8                _signal_r
                0x00009a28                _raise_r
                0x00009a7c                __sigtramp_r
                0x00009ae0                raise
                0x00009b38                signal
                0x00009b88                _init_signal
                0x00009bc0                __sigtramp
 .text          0x00009c28       0x30 /usr/lib/gcc/arm-none-eabi/13.2.1/../../../arm-none-eabi/lib/thumb/v7e-m+fp/hard/libc.a(libc_a-signalr.o)
                0x00009c28                _kill_r
                0x00009c54                _getpid_r
 .text          0x00009c58      0x100 /usr/lib/gcc/arm-none-eabi/13.2.1/../../../arm-none-eabi/lib/thumb/v7e-m+fp/hard/libc.a(libc_a-memmove.o)
                0x00009c58                memmove
 .text          0x00009d58      0xb44 /usr/lib/gcc/arm-none-eabi/13.2.1/../../../arm-none-eabi/lib/thumb/v7e-m+fp/hard/libc.a(libc_a-vfiprintf.o)
                0x00009d58                _vfiprintf_r
                0x0000a814                vfiprintf
 .text          0x0000a89c      0x344 /usr/lib/gcc/arm-none-eabi/13.2.1/../../../arm-none-eabi/lib/thumb/v7e-m+fp/hard/libc.a(libc_a-reallocr.o)
                0x0000a89c                _realloc_r
 .text          0x0000abe0       0x10 /usr/lib/gcc/arm-none-eabi/13.2.1/../../../arm-none-eabi/lib/thumb/v7e-m+fp/hard/libnosys.a(close.o)
                0x0000abe0                _close
 .text          0x0000abf0       0x10 /usr/lib/gcc/arm-none-eabi/13.2.1/../../../arm-none-eabi/lib/thumb/v7e-m+fp/hard/libnosys.a(fstat.o)
                0x0000abf0                _fstat
 .text          0x0000ac00       0x10 /usr/lib/gcc/arm-none-eabi/13.2.1/../../../arm-none-eabi/lib/thumb/v7e-m+fp/hard/libnosys.a(getpid.o)
                0x0000ac00                _getpid
 .text          0x0000ac10       0x10 /usr/lib/gcc/arm-none-eabi/13.2.1/../../../arm-none-eabi/lib/thumb/v7e-m+fp/hard/libnosys.a(isatty.o)
                0x0000ac10                _isatty
 .text          0x0000ac20       0x10 /usr/lib/gcc/arm-none-eabi/13.2.1/../../../arm-none-eabi/lib/thumb/v7e-m+fp/hard/libnosys.a(kill.o)
                0x0000ac20                _kill
 .text          0x0000ac30       0x10 /usr/lib/gcc/arm-none-eabi/13.2.1/../../../arm-none-eabi/lib/thumb/v7e-m+fp/hard/libnosys.a(lseek.o)
                0x0000ac30                _lseek
 .text          0x0000ac40       0x1c /usr/lib/gcc/arm-none-eabi/13.2.1/../../../arm-none-eabi/lib/thumb/v7e-m+fp/hard/libnosys.a(sbrk.o)
                0x0000ac40                _sbrk
 .text          0x0000ac5c        0x4 /usr/lib/gcc/arm-none-eabi/13.2.1/../../../arm-none-eabi/lib/thumb/v7e-m+fp/hard/libnosys.a(_exit.o)
                0x0000ac5c                _exit
 .text          0x0000ac60      0x378 /usr/lib/gcc/arm-none-eabi/13.2.1/thumb/v7e-m+fp/hard/libgcc.a(_arm_addsubdf3.o)
                0x0000ac60                __aeabi_drsub
                0x0000ac68                __aeabi_dsub
                0x0000ac68                __subdf3
                0x0000ac6c                __adddf3
                0x0000ac6c                __aeabi_dadd
                0x0000aee4                __aeabi_ui2d
                0x0000aee4                __floatunsidf
                0x0000af04                __floatsidf
                0x0000af04                __aeabi_i2d
                0x0000af28                __extendsfdf2
                0x0000af28                __aeabi_f2d
                0x0000af6c                __aeabi_ul2d
                0x0000af6c                __floatundidf
                0x0000af7c                __floatdidf
                0x0000af7c                __aeabi_l2d
 .text          0x0000afd8      0x424 /usr/lib/gcc/arm-none-eabi/13.2.1/thumb/v7e-m+fp/hard/libgcc.a(_arm_muldivdf3.o)
                0x0000afd8                __aeabi_dmul
                0x0000afd8                __muldf3
                0x0000b22c                __aeabi_ddiv
                0x0000b22c                __divdf3
 .text          0x0000b3fc      0x110 /usr/lib/gcc/arm-none-eabi/13.2.1/thumb/v7e-m+fp/hard/libgcc.a(_arm_cmpdf2.o)
                0x0000b3fc                __gtdf2
                0x0000b3fc                __gedf2
                0x0000b404                __ltdf2
                0x0000b404                __ledf2
                0x0000b40c                __cmpdf2
                0x0000b40c                __eqdf2
                0x0000b40c                __nedf2
                0x0000b488                __aeabi_cdrcmple
                0x0000b498                __aeabi_cdcmple
                0x0000b498                __aeabi_cdcmpeq
                0x0000b4a8                __aeabi_dcmpeq
                0x0000b4bc                __aeabi_dcmplt
                0x0000b4d0                __aeabi_dcmple
                0x0000b4e4                __aeabi_dcmpge
                0x0000b4f8                __aeabi_dcmpgt
 .text          0x0000b50c       0x2c /usr/lib/gcc/arm-none-eabi/13.2.1/thumb/v7e-m+fp/hard/libgcc.a(_arm_unorddf2.o)
                0x0000b50c                __aeabi_dcmpun
                0x0000b50c                __unorddf2
 .text          0x0000b538       0x50 /usr/lib/gcc/arm-none-eabi/13.2.1/thumb/v7e-m+fp/hard/libgcc.a(_arm_fixdfsi.o)
                0x0000b538                __fixdfsi
                0x0000b538                __aeabi_d2iz
 *(.init)
 .init          0x0000b588        0x4 /usr/lib/gcc/arm-none-eabi/13.2.1/thumb/v7e-m+fp/hard/crti.o
                0x0000b588                _init
 .init          0x0000b58c        0x8 /usr/lib/gcc/arm-none-eabi/13.2.1/thumb/v7e-m+fp/hard/crtn.o
 *(.fini)
 .fini          0x0000b594        0x4 /usr/lib/gcc/arm-none-eabi/13.2.1/thumb/v7e-m+fp/hard/crti.o
                0x0000b594                _fini
 .fini          0x0000b598        0x8 /usr/lib/gcc/arm-none-eabi/13.2.1/thumb/v7e-m+fp/hard/crtn.o
 *crtbegin.o(.ctors)
 *crtbegin?.o(.ctors)
 *(EXCLUDE_FILE(*crtend.o *crtend?.o) .ctors)
 *(SORT_BY_NAME(.ctors.*))
 *(.ctors)
 *crtbegin.o(.dtors)
 *crtbegin?.o(.dtors)
 *(EXCLUDE_FILE(*crtend.o *crtend?.o) .dtors)
 *(SORT_BY_NAME(.dtors.*))
 *(.dtors)
 *(.rodata*)
 .rodata.main.str1.1
                0x0000b5a0     0x11a2 _build/main.o
                                 0x5f (size before relaxing)
 *fill*         0x0000c742        0xe 
 .rodata.delay_machine_code.0
                0x0000c750        0x6 _build/main.o
 *fill*         0x0000c756        0x2 
 .rodata.twi_mngr_instance
                0x0000c758       0x18 _build/main.o
 .rodata        0x0000c770       0x10 _build/main.o
 .rodata.read_reg.str1.1
                0x0000c780        0xc _build/sx1509.o
 .rodata.delay_machine_code.0
                0x0000c780        0x6 _build/sx1509.o
 .rodata.lilybuzzer_init.str1.1
                0x0000c786        0x1 _build/lilybuzzer.o
 *fill*         0x0000c786        0x2 
 .rodata.PWM_INST
                0x0000c788        0x8 _build/lilybuzzer.o
 .rodata.morse_table
                0x0000c790      0x18c _build/lilybuzzer.o
 .rodata.symbol_timer
                0x0000c91c        0x4 _build/lilybuzzer.o
 .rodata        0x0000c920        0xc _build/lilybuzzer.o
 .rodata.keypad_read_input.str1.1
                0x0000c92c       0x11 _build/keypad.o
 *fill*         0x0000c92c        0x4 
 .rodata.delay_machine_code.0
                0x0000c930        0x6 _build/keypad.o
 .rodata.key_map
                0x0000c936        0xc _build/keypad.o
                0x0000c936                key_map
 .rodata.row_pins
                0x0000c942        0x4 _build/keypad.o
                0x0000c942                row_pins
 *fill*         0x0000c946        0x2 
 .rodata.keypad_scanning_timer
                0x0000c948        0x4 _build/keypad.o
 .rodata.nrf_gpio_pin_port_decode.str1.1
                0x0000c94c       0x43 ../lilybuzzer/_build/better_error_handling.o
 .rodata.app_error_fault_handler.str1.1
                0x0000c94c       0x78 ../lilybuzzer/_build/better_error_handling.o
 .rodata.HardFault_c_handler.str1.1
                0x0000c94c      0x12e ../lilybuzzer/_build/better_error_handling.o
 .rodata.str1.1
                0x0000c94c      0x4b6 ../lilybuzzer/_build/better_error_handling.o
 .rodata.cfsr_msgs.0
                0x0000c94c       0x68 ../lilybuzzer/_build/better_error_handling.o
 *fill*         0x0000c9b4        0xc 
 .rodata.delay_machine_code.1
                0x0000c9c0        0x6 ../lilybuzzer/_build/better_error_handling.o
 .rodata.LED_COLS
                0x0000c9c6        0x5 ../lilybuzzer/_build/better_error_handling.o
 .rodata.LED_ROWS
                0x0000c9cb        0x5 ../lilybuzzer/_build/better_error_handling.o
 .rodata.called_first.str1.1
                0x0000c9d0       0x69 ../lilybuzzer/_build/microbit_before_startup.o
 .rodata.delay_machine_code.0
                0x0000c9d0        0x6 ../lilybuzzer/_build/microbit_before_startup.o
 .rodata.uart_init.constprop.0.str1.1
                0x0000c9d6       0x6f ../lilybuzzer/_build/microbit_nrf_log_backend_uart.o
 *fill*         0x0000c9d6        0x2 
 .rodata.nrf_log_backend_uart_api
                0x0000c9d8        0xc ../lilybuzzer/_build/microbit_nrf_log_backend_uart.o
                0x0000c9d8                nrf_log_backend_uart_api
 .rodata        0x0000c9e4       0x20 ../lilybuzzer/_build/microbit_nrf_log_backend_uart.o
 *fill*         0x0000ca04        0xc 
 .rodata.delay_machine_code.0
                0x0000ca10        0x6 ../lilybuzzer/_build/app_timer.o
 .rodata.app_util_critical_region_enter.str1.1
                0x0000ca16       0x55 ../lilybuzzer/_build/app_util_platform.o
 .rodata.nrf_balloc_init.str1.1
                0x0000ca16       0x50 ../lilybuzzer/_build/nrf_balloc.o
 .rodata.str1.1
                0x0000ca16        0x6 ../lilybuzzer/_build/nrf_drv_clock.o
 .rodata.nrf_gpio_pin_port_decode.str1.1
                0x0000ca16       0x43 ../lilybuzzer/_build/nrf_drv_twi.o
 *fill*         0x0000ca16        0xa 
 .rodata.delay_machine_code.0
                0x0000ca20        0x6 ../lilybuzzer/_build/nrf_drv_twi.o
 .rodata.nrf_fprintf_buffer_flush.str1.1
                0x0000ca26       0x46 ../lilybuzzer/_build/nrf_fprintf.o
 .rodata.nrf_fprintf_fmt.str1.1
                0x0000ca26       0x4d ../lilybuzzer/_build/nrf_fprintf_format.o
 .rodata._aV2C.0
                0x0000ca26       0x10 ../lilybuzzer/_build/nrf_fprintf_format.o
 .rodata.nrf_log_default_backends_init.str1.1
                0x0000ca36       0x5f ../lilybuzzer/_build/nrf_log_default_backends.o
 .rodata.str1.1
                0x0000ca36       0x11 ../lilybuzzer/_build/nrf_log_default_backends.o
 .rodata.buf_prealloc.str1.1
                0x0000ca36       0x57 ../lilybuzzer/_build/nrf_log_frontend.o
 .rodata.nrf_log_frontend_dequeue.str1.1
                0x0000ca36       0x11 ../lilybuzzer/_build/nrf_log_frontend.o
 .rodata.str1.1
                0x0000ca36        0x4 ../lilybuzzer/_build/nrf_log_frontend.o
 *fill*         0x0000ca36        0x2 
 .rodata.m_log_push_ringbuf
                0x0000ca38        0xc ../lilybuzzer/_build/nrf_log_frontend.o
 .rodata.postfix_process.str1.1
                0x0000ca44        0xb ../lilybuzzer/_build/nrf_log_str_formatter.o
 .rodata.prefix_process.constprop.0.str1.1
                0x0000ca44       0x2a ../lilybuzzer/_build/nrf_log_str_formatter.o
 .rodata.nrf_log_hexdump_entry_process.str1.1
                0x0000ca44       0x11 ../lilybuzzer/_build/nrf_log_str_formatter.o
 .rodata.str1.1
                0x0000ca44       0x51 ../lilybuzzer/_build/nrf_log_str_formatter.o
 .rodata.m_colors
                0x0000ca44       0x24 ../lilybuzzer/_build/nrf_log_str_formatter.o
 .rodata.severity_names
                0x0000ca68       0x14 ../lilybuzzer/_build/nrf_log_str_formatter.o
 .rodata.memobj_op.str1.1
                0x0000ca7c       0x50 ../lilybuzzer/_build/nrf_memobj.o
 .rodata.str1.1
                0x0000ca7c        0x9 ../lilybuzzer/_build/nrf_pwr_mgmt.o
 .rodata.nrf_queue_next_idx.str1.1
                0x0000ca7c       0x4e ../lilybuzzer/_build/nrf_queue.o
 .rodata.str1.1
                0x0000ca7c      0x391 ../lilybuzzer/_build/nrf_strerror.o
 .rodata.nrf_strerror_array
                0x0000ca7c      0x118 ../lilybuzzer/_build/nrf_strerror.o
 .rodata.m_unknown_str
                0x0000cb94       0x13 ../lilybuzzer/_build/nrf_strerror.o
 .rodata.transaction_end_signal.str1.1
                0x0000cba7       0x54 ../lilybuzzer/_build/nrf_twi_mngr.o
 .rodata.str1.1
                0x0000cba7        0x6 ../lilybuzzer/_build/nrfx_clock.o
 .rodata.nrf_gpio_pin_port_decode.str1.1
                0x0000cba7       0x43 ../lilybuzzer/_build/nrfx_gpiote.o
 .rodata.str1.1
                0x0000cba7        0x7 ../lilybuzzer/_build/nrfx_gpiote.o
 .rodata.UARTE0_UART0_IRQHandler.str1.1
                0x0000cba7       0x4f ../lilybuzzer/_build/nrfx_prs.o
 .rodata.str1.1
                0x0000cba7        0x4 ../lilybuzzer/_build/nrfx_prs.o
 .rodata.nrf_gpio_pin_port_decode.str1.1
                0x0000cba7       0x43 ../lilybuzzer/_build/nrfx_pwm.o
 .rodata.nrf_pwm_sequence_set.str1.1
                0x0000cba7       0x42 ../lilybuzzer/_build/nrfx_pwm.o
 .rodata.nrfx_pwm_init.str1.1
                0x0000cba7       0x8f ../lilybuzzer/_build/nrfx_pwm.o
 .rodata.str1.1
                0x0000cba7        0x4 ../lilybuzzer/_build/nrfx_pwm.o
 .rodata.str1.1
                0x0000cba7        0x6 ../lilybuzzer/_build/nrfx_saadc.o
 .rodata.nrf_gpio_pin_port_decode.str1.1
                0x0000cba7       0x43 ../lilybuzzer/_build/nrfx_spim.o
 .rodata.SPIM2_SPIS2_SPI2_IRQHandler.str1.1
                0x0000cba7       0x4c ../lilybuzzer/_build/nrfx_spim.o
 .rodata.str1.1
                0x0000cba7        0x5 ../lilybuzzer/_build/nrfx_spim.o
 .rodata.str1.1
                0x0000cba7        0x6 ../lilybuzzer/_build/nrfx_timer.o
 .rodata.nrf_gpio_pin_port_decode.str1.1
                0x0000cba7       0x43 ../lilybuzzer/_build/nrfx_twim.o
 .rodata.twim_irq_handler.str1.1
                0x0000cba7       0x4c ../lilybuzzer/_build/nrfx_twim.o
 .rodata.nrfx_twim_init.str1.1
                0x0000cba7       0x44 ../lilybuzzer/_build/nrfx_twim.o
 *fill*         0x0000cba7        0x1 
 .rodata.irq_handlers.0
                0x0000cba8        0x8 ../lilybuzzer/_build/nrfx_twim.o
 .rodata.str1.1
                0x0000cbb0        0x5 ../lilybuzzer/_build/nrfx_twim.o
 .rodata.nrf_gpio_pin_port_decode.str1.1
                0x0000cbb0       0x43 ../lilybuzzer/_build/nrfx_uart.o
 .rodata.nrfx_uart_init.str1.1
                0x0000cbb0       0x90 ../lilybuzzer/_build/nrfx_uart.o
 .rodata.str1.1
                0x0000cbb0        0x5 ../lilybuzzer/_build/nrfx_uart.o
 .rodata.nrf_gpio_pin_port_decode.str1.1
                0x0000cbb0       0x43 ../lilybuzzer/_build/nrfx_uarte.o
 .rodata.nrfx_uarte_init.str1.1
                0x0000cbb0       0x91 ../lilybuzzer/_build/nrfx_uarte.o
 .rodata.str1.1
                0x0000cbb0        0x6 ../lilybuzzer/_build/nrfx_uarte.o
 .rodata        0x0000cbb0      0x101 /usr/lib/gcc/arm-none-eabi/13.2.1/../../../arm-none-eabi/lib/thumb/v7e-m+fp/hard/libc.a(libc_a-ctype_.o)
                0x0000cbb0                _ctype_
 *fill*         0x0000ccb1        0x3 
 .rodata.str1.4
                0x0000ccb4      0x112 /usr/lib/gcc/arm-none-eabi/13.2.1/../../../arm-none-eabi/lib/thumb/v7e-m+fp/hard/libc.a(libc_a-vfprintf.o)
                                 0x42 (size before relaxing)
 *fill*         0x0000cdc6        0x2 
 .rodata        0x0000cdc8       0x20 /usr/lib/gcc/arm-none-eabi/13.2.1/../../../arm-none-eabi/lib/thumb/v7e-m+fp/hard/libc.a(libc_a-vfprintf.o)
 .rodata.str1.4
                0x0000cde8       0x54 /usr/lib/gcc/arm-none-eabi/13.2.1/../../../arm-none-eabi/lib/thumb/v7e-m+fp/hard/libc.a(libc_a-dtoa.o)
 .rodata.str1.4
                0x0000cde8       0x43 /usr/lib/gcc/arm-none-eabi/13.2.1/../../../arm-none-eabi/lib/thumb/v7e-m+fp/hard/libc.a(libc_a-assert.o)
 .rodata.str1.4
                0x0000cde8       0x41 /usr/lib/gcc/arm-none-eabi/13.2.1/../../../arm-none-eabi/lib/thumb/v7e-m+fp/hard/libc.a(libc_a-mprec.o)
 .rodata        0x0000cde8      0x128 /usr/lib/gcc/arm-none-eabi/13.2.1/../../../arm-none-eabi/lib/thumb/v7e-m+fp/hard/libc.a(libc_a-mprec.o)
                0x0000cdf8                __mprec_tens
                0x0000cec0                __mprec_tinytens
                0x0000cee8                __mprec_bigtens
 .rodata.str1.4
                0x0000cf10       0x12 /usr/lib/gcc/arm-none-eabi/13.2.1/../../../arm-none-eabi/lib/thumb/v7e-m+fp/hard/libc.a(libc_a-locale.o)
 .rodata.str1.4
                0x0000cf10       0x2f /usr/lib/gcc/arm-none-eabi/13.2.1/../../../arm-none-eabi/lib/thumb/v7e-m+fp/hard/libc.a(libc_a-vfiprintf.o)
 .rodata        0x0000cf10       0x20 /usr/lib/gcc/arm-none-eabi/13.2.1/../../../arm-none-eabi/lib/thumb/v7e-m+fp/hard/libc.a(libc_a-vfiprintf.o)
 *(.eh_frame*)
 .eh_frame      0x0000cf30        0x0 /usr/lib/gcc/arm-none-eabi/13.2.1/thumb/v7e-m+fp/hard/crtbegin.o
 .eh_frame      0x0000cf30       0x34 /usr/lib/gcc/arm-none-eabi/13.2.1/../../../arm-none-eabi/lib/thumb/v7e-m+fp/hard/libc.a(libc_a-strlen.o)
 .eh_frame      0x0000cf64       0x2c /usr/lib/gcc/arm-none-eabi/13.2.1/../../../arm-none-eabi/lib/thumb/v7e-m+fp/hard/libc.a(libc_a-memcpy.o)
 .eh_frame      0x0000cf90       0x50 /usr/lib/gcc/arm-none-eabi/13.2.1/../../../arm-none-eabi/lib/thumb/v7e-m+fp/hard/libc.a(libc_a-memchr.o)
 .eh_frame      0x0000cfe0        0x4 /usr/lib/gcc/arm-none-eabi/13.2.1/thumb/v7e-m+fp/hard/crtend.o

.glue_7         0x0000cfe4        0x0
 .glue_7        0x0000cfe4        0x0 linker stubs

.glue_7t        0x0000cfe4        0x0
 .glue_7t       0x0000cfe4        0x0 linker stubs

.vfp11_veneer   0x0000cfe4        0x0
 .vfp11_veneer  0x0000cfe4        0x0 linker stubs

.v4_bx          0x0000cfe4        0x0
 .v4_bx         0x0000cfe4        0x0 linker stubs

.iplt           0x0000cfe4        0x0
 .iplt          0x0000cfe4        0x0 /usr/lib/gcc/arm-none-eabi/13.2.1/thumb/v7e-m+fp/hard/crtbegin.o

.pwr_mgmt_data  0x0000cfe4        0x0
                0x0000cfe4                        PROVIDE (__start_pwr_mgmt_data = .)
 *(SORT_BY_NAME(.pwr_mgmt_data*))
                0x0000cfe4                        PROVIDE (__stop_pwr_mgmt_data = .)

.log_const_data
                0x0000cfe4       0x68
                0x0000cfe4                        PROVIDE (__start_log_const_data = .)
 *(SORT_BY_NAME(.log_const_data*))
 .log_const_data_CLOCK
                0x0000cfe4        0x8 ../lilybuzzer/_build/nrfx_clock.o
                0x0000cfe4                m_nrf_log_CLOCK_logs_data_const
 .log_const_data_GPIOTE
                0x0000cfec        0x8 ../lilybuzzer/_build/nrfx_gpiote.o
                0x0000cfec                m_nrf_log_GPIOTE_logs_data_const
 .log_const_data_PRS
                0x0000cff4        0x8 ../lilybuzzer/_build/nrfx_prs.o
                0x0000cff4                m_nrf_log_PRS_logs_data_const
 .log_const_data_PWM
                0x0000cffc        0x8 ../lilybuzzer/_build/nrfx_pwm.o
                0x0000cffc                m_nrf_log_PWM_logs_data_const
 .log_const_data_SAADC
                0x0000d004        0x8 ../lilybuzzer/_build/nrfx_saadc.o
                0x0000d004                m_nrf_log_SAADC_logs_data_const
 .log_const_data_SPIM
                0x0000d00c        0x8 ../lilybuzzer/_build/nrfx_spim.o
                0x0000d00c                m_nrf_log_SPIM_logs_data_const
 .log_const_data_TIMER
                0x0000d014        0x8 ../lilybuzzer/_build/nrfx_timer.o
                0x0000d014                m_nrf_log_TIMER_logs_data_const
 .log_const_data_TWIM
                0x0000d01c        0x8 ../lilybuzzer/_build/nrfx_twim.o
                0x0000d01c                m_nrf_log_TWIM_logs_data_const
 .log_const_data_UART
                0x0000d024        0x8 ../lilybuzzer/_build/nrfx_uart.o
                0x0000d024                m_nrf_log_UART_logs_data_const
 .log_const_data_UARTE
                0x0000d02c        0x8 ../lilybuzzer/_build/nrfx_uarte.o
                0x0000d02c                m_nrf_log_UARTE_logs_data_const
 .log_const_data_app
                0x0000d034        0x8 ../lilybuzzer/_build/nrf_log_frontend.o
                0x0000d034                m_nrf_log_app_logs_data_const
 .log_const_data_clock
                0x0000d03c        0x8 ../lilybuzzer/_build/nrf_drv_clock.o
                0x0000d03c                m_nrf_log_clock_logs_data_const
 .log_const_data_pwr_mgmt
                0x0000d044        0x8 ../lilybuzzer/_build/nrf_pwr_mgmt.o
                0x0000d044                m_nrf_log_pwr_mgmt_logs_data_const
                0x0000d04c                        PROVIDE (__stop_log_const_data = .)

.nrf_balloc     0x0000d04c       0x14
                [!provide]                        PROVIDE (__start_nrf_balloc = .)
 *(.nrf_balloc)
 .nrf_balloc    0x0000d04c       0x14 ../lilybuzzer/_build/nrf_log_frontend.o
                0x0000d04c                log_mempool
                [!provide]                        PROVIDE (__stop_nrf_balloc = .)

.nrf_queue      0x0000d060       0x14
                [!provide]                        PROVIDE (__start_nrf_queue = .)
 *(.nrf_queue)
 .nrf_queue     0x0000d060       0x14 _build/main.o
                0x0000d060                twi_mngr_instance_queue
                [!provide]                        PROVIDE (__stop_nrf_queue = .)

.log_backends   0x0000d074       0x10
 .log_backends  0x0000d074       0x10 ../lilybuzzer/_build/nrf_log_default_backends.o

.cli_command    0x0000d084        0x0
                [!provide]                        PROVIDE (__start_cli_command = .)
 *(.cli_command)
                [!provide]                        PROVIDE (__stop_cli_command = .)

.sdh_stack_observers
                0x0000d084        0x0
                [!provide]                        PROVIDE (__start_sdh_stack_observers = .)
 *(SORT_BY_NAME(.sdh_stack_observers*))
                [!provide]                        PROVIDE (__stop_sdh_stack_observers = .)

.sdh_req_observers
                0x0000d084        0x0
                [!provide]                        PROVIDE (__start_sdh_req_observers = .)
 *(SORT_BY_NAME(.sdh_req_observers*))
                [!provide]                        PROVIDE (__stop_sdh_req_observers = .)

.sdh_state_observers
                0x0000d084        0x0
                [!provide]                        PROVIDE (__start_sdh_state_observers = .)
 *(SORT_BY_NAME(.sdh_state_observers*))
                [!provide]                        PROVIDE (__stop_sdh_state_observers = .)

.sdh_ant_observers
                0x0000d084        0x0
                [!provide]                        PROVIDE (__start_sdh_ant_observers = .)
 *(SORT_BY_NAME(.sdh_ant_observers*))
                [!provide]                        PROVIDE (__stop_sdh_ant_observers = .)

.sdh_ble_observers
                0x0000d084        0x0
                [!provide]                        PROVIDE (__start_sdh_ble_observers = .)
 *(SORT_BY_NAME(.sdh_ble_observers*))
                [!provide]                        PROVIDE (__stop_sdh_ble_observers = .)

.sdh_soc_observers
                0x0000d084        0x0
                [!provide]                        PROVIDE (__start_sdh_soc_observers = .)
 *(SORT_BY_NAME(.sdh_soc_observers*))
                [!provide]                        PROVIDE (__stop_sdh_soc_observers = .)

.crypto_data    0x0000d084        0x0
                [!provide]                        PROVIDE (__start_crypto_data = .)
 *(SORT_BY_NAME(.crypto_data*))
                [!provide]                        PROVIDE (__stop_crypto_data = .)

.ARM.extab
 *(.ARM.extab* .gnu.linkonce.armextab.*)
                0x0000d084                        __exidx_start = .

.ARM.exidx      0x0000d084        0x8
 *(.ARM.exidx* .gnu.linkonce.armexidx.*)
 .ARM.exidx     0x0000d084        0x8 /usr/lib/gcc/arm-none-eabi/13.2.1/../../../arm-none-eabi/lib/thumb/v7e-m+fp/hard/crt0.o
                                 0x10 (size before relaxing)
 .ARM.exidx     0x0000d08c        0x0 /usr/lib/gcc/arm-none-eabi/13.2.1/../../../arm-none-eabi/lib/thumb/v7e-m+fp/hard/libc.a(libc_a-strlen.o)
                                  0x8 (size before relaxing)
 .ARM.exidx     0x0000d08c        0x0 /usr/lib/gcc/arm-none-eabi/13.2.1/../../../arm-none-eabi/lib/thumb/v7e-m+fp/hard/libc.a(libc_a-memcpy.o)
                                  0x8 (size before relaxing)
 .ARM.exidx     0x0000d08c        0x0 /usr/lib/gcc/arm-none-eabi/13.2.1/../../../arm-none-eabi/lib/thumb/v7e-m+fp/hard/libc.a(libc_a-memchr.o)
                                  0x8 (size before relaxing)
                0x0000d08c                        __exidx_end = .
                0x0000d08c                        __etext = .

.rel.dyn        0x0000d08c        0x0
 .rel.iplt      0x0000d08c        0x0 /usr/lib/gcc/arm-none-eabi/13.2.1/thumb/v7e-m+fp/hard/crtbegin.o

.data           0x20000000      0x6fc load address 0x0000d08c
                0x20000000                        __data_start__ = .
 *(vtable)
 *(.data*)
 .data.string_to_play
                0x20000000        0x4 _build/lilybuzzer.o
                0x20000000                string_to_play
 .data.pwm_sequence
                0x20000004       0x10 _build/lilybuzzer.o
                0x20000004                pwm_sequence
 .data.m_uart   0x20000014       0x14 ../lilybuzzer/_build/microbit_nrf_log_backend_uart.o
                0x20000014                m_uart
 .data.log_backend_cb_uart_log_backend
                0x20000028        0x8 ../lilybuzzer/_build/nrf_log_default_backends.o
 .data.SystemCoreClock
                0x20000030        0x4 ../lilybuzzer/_build/system_nrf52833.o
                0x20000030                SystemCoreClock
 *fill*         0x20000034        0x4 
 .data          0x20000038      0x128 /usr/lib/gcc/arm-none-eabi/13.2.1/../../../arm-none-eabi/lib/thumb/v7e-m+fp/hard/libc.a(libc_a-impure.o)
                0x20000038                _impure_ptr
                0x20000040                _impure_data
 .data          0x20000160        0xc /usr/lib/gcc/arm-none-eabi/13.2.1/../../../arm-none-eabi/lib/thumb/v7e-m+fp/hard/libc.a(libc_a-findfp.o)
                0x20000160                __sglue
 *fill*         0x2000016c        0x4 
 .data          0x20000170      0x410 /usr/lib/gcc/arm-none-eabi/13.2.1/../../../arm-none-eabi/lib/thumb/v7e-m+fp/hard/libc.a(libc_a-mallocr.o)
                0x20000170                __malloc_av_
                0x20000578                __malloc_sbrk_base
                0x2000057c                __malloc_trim_threshold
 .data          0x20000580      0x16c /usr/lib/gcc/arm-none-eabi/13.2.1/../../../arm-none-eabi/lib/thumb/v7e-m+fp/hard/libc.a(libc_a-locale.o)
                0x20000580                __global_locale
                0x200006ec                        . = ALIGN (0x4)
                0x200006ec                        PROVIDE (__preinit_array_start = .)
 *(.preinit_array)
                0x200006ec                        PROVIDE (__preinit_array_end = .)
                0x200006ec                        . = ALIGN (0x4)
                0x200006ec                        PROVIDE (__init_array_start = .)
 *(SORT_BY_NAME(.init_array.*))
 .init_array.00000
                0x200006ec        0x4 /usr/lib/gcc/arm-none-eabi/13.2.1/../../../arm-none-eabi/lib/thumb/v7e-m+fp/hard/libc.a(libc_a-__call_atexit.o)
 *(.init_array)
 .init_array    0x200006f0        0x4 /usr/lib/gcc/arm-none-eabi/13.2.1/thumb/v7e-m+fp/hard/crtbegin.o
 .init_array    0x200006f4        0x4 ../lilybuzzer/_build/microbit_before_startup.o
                0x200006f8                        PROVIDE (__init_array_end = .)
                0x200006f8                        . = ALIGN (0x4)
                0x200006f8                        PROVIDE (__fini_array_start = .)
 *(SORT_BY_NAME(.fini_array.*))
 *(.fini_array)
 .fini_array    0x200006f8        0x4 /usr/lib/gcc/arm-none-eabi/13.2.1/thumb/v7e-m+fp/hard/crtbegin.o
                0x200006fc                        PROVIDE (__fini_array_end = .)
 *(.jcr*)
                0x200006fc                        . = ALIGN (0x4)
                0x200006fc                        __data_end__ = .
LOAD /usr/lib/gcc/arm-none-eabi/13.2.1/thumb/v7e-m+fp/hard/crti.o
LOAD /usr/lib/gcc/arm-none-eabi/13.2.1/thumb/v7e-m+fp/hard/crtbegin.o
LOAD /usr/lib/gcc/arm-none-eabi/13.2.1/../../../arm-none-eabi/lib/thumb/v7e-m+fp/hard/crt0.o
START GROUP
LOAD _build/main.o
LOAD _build/sx1509.o
LOAD _build/lilybuzzer.o
LOAD _build/keypad.o
LOAD _build/nrf_block_dev_ram.o
LOAD _build/nrf_block_dev_qspi.o
LOAD _build/nrf_serial_flash_params.o
LOAD ../lilybuzzer/_build/better_error_handling.o
LOAD ../lilybuzzer/_build/microbit_before_startup.o
LOAD ../lilybuzzer/_build/microbit_nrf_log_backend_uart.o
LOAD ../lilybuzzer/_build/microbit_retarget.o
LOAD ../lilybuzzer/_build/app_error_handler_gcc.o
LOAD ../lilybuzzer/_build/app_fifo.o
LOAD ../lilybuzzer/_build/app_scheduler.o
LOAD ../lilybuzzer/_build/app_timer.o
LOAD ../lilybuzzer/_build/app_uart_fifo.o
LOAD ../lilybuzzer/_build/app_util_platform.o
LOAD ../lilybuzzer/_build/hardfault_handler_gcc.o
LOAD ../lilybuzzer/_build/nrf_assert.o
LOAD ../lilybuzzer/_build/nrf_atomic.o
LOAD ../lilybuzzer/_build/nrf_balloc.o
LOAD ../lilybuzzer/_build/nrf_drv_clock.o
LOAD ../lilybuzzer/_build/nrf_drv_twi.o
LOAD ../lilybuzzer/_build/nrf_drv_uart.o
LOAD ../lilybuzzer/_build/nrf_fprintf.o
LOAD ../lilybuzzer/_build/nrf_fprintf_format.o
LOAD ../lilybuzzer/_build/nrf_log_backend_rtt.o
LOAD ../lilybuzzer/_build/nrf_log_backend_serial.o
LOAD ../lilybuzzer/_build/nrf_log_default_backends.o
LOAD ../lilybuzzer/_build/nrf_log_frontend.o
LOAD ../lilybuzzer/_build/nrf_log_str_formatter.o
LOAD ../lilybuzzer/_build/nrf_memobj.o
LOAD ../lilybuzzer/_build/nrf_nvmc.o
LOAD ../lilybuzzer/_build/nrf_pwr_mgmt.o
LOAD ../lilybuzzer/_build/nrf_queue.o
LOAD ../lilybuzzer/_build/nrf_ringbuf.o
LOAD ../lilybuzzer/_build/nrf_sdh.o
LOAD ../lilybuzzer/_build/nrf_section_iter.o
LOAD ../lilybuzzer/_build/nrf_serial.o
LOAD ../lilybuzzer/_build/nrf_strerror.o
LOAD ../lilybuzzer/_build/nrf_twi_mngr.o
LOAD ../lilybuzzer/_build/nrfx_clock.o
LOAD ../lilybuzzer/_build/nrfx_gpiote.o
LOAD ../lilybuzzer/_build/nrfx_ppi.o
LOAD ../lilybuzzer/_build/nrfx_prs.o
LOAD ../lilybuzzer/_build/nrfx_pwm.o
LOAD ../lilybuzzer/_build/nrfx_saadc.o
LOAD ../lilybuzzer/_build/nrfx_spim.o
LOAD ../lilybuzzer/_build/nrfx_timer.o
LOAD ../lilybuzzer/_build/nrfx_twi.o
LOAD ../lilybuzzer/_build/nrfx_twim.o
LOAD ../lilybuzzer/_build/nrfx_uart.o
LOAD ../lilybuzzer/_build/nrfx_uarte.o
LOAD ../lilybuzzer/_build/system_nrf52833.o
LOAD ../lilybuzzer/_build/app_error_weak.o
LOAD ../lilybuzzer/_build/gcc_startup_nrf52833.os
LOAD /usr/lib/gcc/arm-none-eabi/13.2.1/../../../arm-none-eabi/lib/thumb/v7e-m+fp/hard/libc.a
LOAD /usr/lib/gcc/arm-none-eabi/13.2.1/../../../arm-none-eabi/lib/thumb/v7e-m+fp/hard/libnosys.a
LOAD /usr/lib/gcc/arm-none-eabi/13.2.1/../../../arm-none-eabi/lib/thumb/v7e-m+fp/hard/libm.a
LOAD /usr/lib/gcc/arm-none-eabi/13.2.1/../../../arm-none-eabi/lib/thumb/v7e-m+fp/hard/libstdc++.a
END GROUP
START GROUP
LOAD /usr/lib/gcc/arm-none-eabi/13.2.1/thumb/v7e-m+fp/hard/libgcc.a
LOAD /usr/lib/gcc/arm-none-eabi/13.2.1/../../../arm-none-eabi/lib/thumb/v7e-m+fp/hard/libc.a
END GROUP
LOAD /usr/lib/gcc/arm-none-eabi/13.2.1/thumb/v7e-m+fp/hard/crtend.o
LOAD /usr/lib/gcc/arm-none-eabi/13.2.1/thumb/v7e-m+fp/hard/crtn.o
START GROUP
LOAD /usr/lib/gcc/arm-none-eabi/13.2.1/thumb/v7e-m+fp/hard/libgcc.a
LOAD /usr/lib/gcc/arm-none-eabi/13.2.1/../../../arm-none-eabi/lib/thumb/v7e-m+fp/hard/libc.a
LOAD /usr/lib/gcc/arm-none-eabi/13.2.1/../../../arm-none-eabi/lib/thumb/v7e-m+fp/hard/libnosys.a
END GROUP
                0x00001000                        FLASH_PAGE_SIZE = 0x1000
                0x00000004                        FLASH_DATA_PAGES_USED = 0x4

.tm_clone_table
                0x200006fc        0x0 load address 0x0000d788
 .tm_clone_table
                0x200006fc        0x0 /usr/lib/gcc/arm-none-eabi/13.2.1/thumb/v7e-m+fp/hard/crtbegin.o
 .tm_clone_table
                0x200006fc        0x0 /usr/lib/gcc/arm-none-eabi/13.2.1/thumb/v7e-m+fp/hard/crtend.o

.igot.plt       0x200006fc        0x0 load address 0x0000d788
 .igot.plt      0x200006fc        0x0 /usr/lib/gcc/arm-none-eabi/13.2.1/thumb/v7e-m+fp/hard/crtbegin.o
                0x200006fc                        . = ALIGN (0x4)

.svc_data       0x200006fc        0x0
                [!provide]                        PROVIDE (__start_svc_data = .)
 *(.svc_data)
                [!provide]                        PROVIDE (__stop_svc_data = .)

.fs_data        0x200006fc        0x0
                [!provide]                        PROVIDE (__start_fs_data = .)
 *(.fs_data)
                [!provide]                        PROVIDE (__stop_fs_data = .)

.log_dynamic_data
                0x200006fc        0x0
                0x200006fc                        PROVIDE (__start_log_dynamic_data = .)
 *(SORT_BY_NAME(.log_dynamic_data*))
                [!provide]                        PROVIDE (__stop_log_dynamic_data = .)

.cli_sorted_cmd_ptrs
                0x200006fc        0x0
                [!provide]                        PROVIDE (__start_cli_sorted_cmd_ptrs = .)
 *(.cli_sorted_cmd_ptrs)
                [!provide]                        PROVIDE (__stop_cli_sorted_cmd_ptrs = .)

.bss            0x200006fc      0xc7c load address 0x0000d788
                0x200006fc                        . = ALIGN (0x4)
                0x200006fc                        __bss_start__ = .
 *(.bss*)
 .bss           0x200006fc       0x1c /usr/lib/gcc/arm-none-eabi/13.2.1/thumb/v7e-m+fp/hard/crtbegin.o
 .bss.twi_mngr_instance_cb
                0x20000718       0x1c _build/main.o
 .bss.twi_mngr_instance_queue_nrf_queue_cb
                0x20000734        0xc _build/main.o
 .bss.twi_mngr_instance_queue_nrf_queue_buffer
                0x20000740        0x8 _build/main.o
 .bss.twi_mngr  0x20000748        0x4 _build/sx1509.o
 .bss.curr_symbol_index
                0x2000074c        0x1 _build/lilybuzzer.o
                0x2000074c                curr_symbol_index
 *fill*         0x2000074d        0x3 
 .bss.curr_char_index
                0x20000750        0x4 _build/lilybuzzer.o
                0x20000750                curr_char_index
 .bss.string_length
                0x20000754        0x4 _build/lilybuzzer.o
                0x20000754                string_length
 .bss.sequence_data
                0x20000758        0x2 _build/lilybuzzer.o
                0x20000758                sequence_data
 *fill*         0x2000075a        0x2 
 .bss.symbol_timer_data
                0x2000075c       0x20 _build/lilybuzzer.o
 .bss.key_prev  0x2000077c        0x1 _build/keypad.o
                0x2000077c                key_prev
 .bss.record_index
                0x2000077d        0x1 _build/keypad.o
                0x2000077d                record_index
 .bss.key_record
                0x2000077e        0xa _build/keypad.o
                0x2000077e                key_record
 .bss.keypad_scanning_timer_data
                0x20000788       0x20 _build/keypad.o
 .bss.m_async_mode
                0x200007a8        0x1 ../lilybuzzer/_build/microbit_nrf_log_backend_uart.o
 .bss.m_xfer_done
                0x200007a9        0x1 ../lilybuzzer/_build/microbit_nrf_log_backend_uart.o
 .bss.m_string_buff
                0x200007aa       0x40 ../lilybuzzer/_build/microbit_nrf_log_backend_uart.o
 .bss.m_rtc1_reset
                0x200007ea        0x1 ../lilybuzzer/_build/app_timer.o
 .bss.m_rtc1_running
                0x200007eb        0x1 ../lilybuzzer/_build/app_timer.o
 .bss.m_ticks_elapsed_q_write_ind
                0x200007ec        0x1 ../lilybuzzer/_build/app_timer.o
 .bss.m_ticks_elapsed_q_read_ind
                0x200007ed        0x1 ../lilybuzzer/_build/app_timer.o
 *fill*         0x200007ee        0x2 
 .bss.m_ticks_elapsed
                0x200007f0        0x8 ../lilybuzzer/_build/app_timer.o
 .bss.m_ticks_latest
                0x200007f8        0x4 ../lilybuzzer/_build/app_timer.o
 .bss.mp_timer_id_head
                0x200007fc        0x4 ../lilybuzzer/_build/app_timer.o
 .bss.m_op_queue
                0x20000800      0x10c ../lilybuzzer/_build/app_timer.o
 .bss.m_in_critical_region
                0x2000090c        0x4 ../lilybuzzer/_build/app_util_platform.o
 .bss.m_contexts
                0x20000910        0x8 ../lilybuzzer/_build/nrf_drv_twi.o
 .bss.m_handlers
                0x20000918        0x8 ../lilybuzzer/_build/nrf_drv_twi.o
 .bss.nrf_drv_uart_use_easy_dma
                0x20000920        0x2 ../lilybuzzer/_build/nrf_drv_uart.o
                0x20000920                nrf_drv_uart_use_easy_dma
 *fill*         0x20000922        0x2 
 .bss.m_contexts
                0x20000924        0x8 ../lilybuzzer/_build/nrf_drv_uart.o
 .bss.m_handlers
                0x2000092c        0x8 ../lilybuzzer/_build/nrf_drv_uart.o
 .bss.m_log_data
                0x20000934      0x424 ../lilybuzzer/_build/nrf_log_frontend.o
 .bss.m_log_push_ringbuf_cb
                0x20000d58       0x18 ../lilybuzzer/_build/nrf_log_frontend.o
 .bss.m_log_push_ringbuf_buf
                0x20000d70       0x80 ../lilybuzzer/_build/nrf_log_frontend.o
 .bss.log_mempool_nrf_balloc_cb
                0x20000df0        0x8 ../lilybuzzer/_build/nrf_log_frontend.o
 .bss.log_mempool_nrf_balloc_pool_mem
                0x20000df8       0xc0 ../lilybuzzer/_build/nrf_log_frontend.o
 .bss.log_mempool_nrf_balloc_pool_stack
                0x20000eb8        0x8 ../lilybuzzer/_build/nrf_log_frontend.o
 .bss.m_clock_cb
                0x20000ec0        0x8 ../lilybuzzer/_build/nrfx_clock.o
 .bss.m_cb      0x20000ec8       0x68 ../lilybuzzer/_build/nrfx_gpiote.o
 .bss.m_prs_box_4
                0x20000f30        0x8 ../lilybuzzer/_build/nrfx_prs.o
 .bss.m_cb      0x20000f38       0x10 ../lilybuzzer/_build/nrfx_pwm.o
 .bss.m_cb      0x20000f48       0x30 ../lilybuzzer/_build/nrfx_saadc.o
 .bss.m_cb      0x20000f78       0x24 ../lilybuzzer/_build/nrfx_spim.o
 .bss.m_cb      0x20000f9c       0x18 ../lilybuzzer/_build/nrfx_timer.o
 .bss.m_cb      0x20000fb4       0x68 ../lilybuzzer/_build/nrfx_twim.o
 .bss.m_cb      0x2000101c       0x2c ../lilybuzzer/_build/nrfx_uart.o
 .bss.m_cb      0x20001048       0x24 ../lilybuzzer/_build/nrfx_uarte.o
 .bss           0x2000106c      0x13c /usr/lib/gcc/arm-none-eabi/13.2.1/../../../arm-none-eabi/lib/thumb/v7e-m+fp/hard/libc.a(libc_a-findfp.o)
                0x2000106c                __sf
                0x200011a4                __stdio_exit_handler
 .bss           0x200011a8       0x34 /usr/lib/gcc/arm-none-eabi/13.2.1/../../../arm-none-eabi/lib/thumb/v7e-m+fp/hard/libc.a(libc_a-mallocr.o)
                0x200011a8                __malloc_top_pad
                0x200011ac                __malloc_current_mallinfo
                0x200011d4                __malloc_max_sbrked_mem
                0x200011d8                __malloc_max_total_mem
 .bss           0x200011dc        0x4 /usr/lib/gcc/arm-none-eabi/13.2.1/../../../arm-none-eabi/lib/thumb/v7e-m+fp/hard/libc.a(libc_a-__call_atexit.o)
                0x200011dc                __atexit
 .bss           0x200011e0      0x190 /usr/lib/gcc/arm-none-eabi/13.2.1/../../../arm-none-eabi/lib/thumb/v7e-m+fp/hard/libc.a(libc_a-__atexit.o)
                0x200011e0                __atexit0
 .bss           0x20001370        0x4 /usr/lib/gcc/arm-none-eabi/13.2.1/../../../arm-none-eabi/lib/thumb/v7e-m+fp/hard/libc.a(libc_a-reent.o)
                0x20001370                errno
 .bss           0x20001374        0x4 /usr/lib/gcc/arm-none-eabi/13.2.1/../../../arm-none-eabi/lib/thumb/v7e-m+fp/hard/libnosys.a(sbrk.o)
 *(COMMON)
                0x20001378                        . = ALIGN (0x4)
                0x20001378                        __bss_end__ = .

.heap           0x20001378     0x2000
                0x20001378                        __HeapBase = .
                0x20001378                        __end__ = .
                0x20001378                        PROVIDE (end = .)
 *(.heap*)
 .heap          0x20001378     0x2000 ../lilybuzzer/_build/gcc_startup_nrf52833.os
                0x20003378                        __HeapLimit = .

.stack_dummy    0x20001378     0x2000
 *(.stack*)
 .stack         0x20001378     0x2000 ../lilybuzzer/_build/gcc_startup_nrf52833.os
                0x20020000                        __StackTop = (ORIGIN (RAM) + LENGTH (RAM))
                0x2001e000                        __StackLimit = (__StackTop - SIZEOF (.stack_dummy))
                0x20020000                        PROVIDE (__stack = __StackTop)
                0x00000001                        ASSERT ((__StackLimit >= __HeapLimit), region RAM overflowed with stack)
                0x000006fc                        DataInitFlashUsed = (__bss_start__ - __data_start__)
                0x0000d08c                        CodeFlashUsed = (__etext - ORIGIN (FLASH))
                0x0000d788                        TotalFlashUsed = (CodeFlashUsed + DataInitFlashUsed)
                0x00000001                        ASSERT ((TotalFlashUsed <= LENGTH (FLASH)), region FLASH overflowed with .data and user data)
OUTPUT(_build/morse_code_puzzle_sdk16_blank.elf elf32-littlearm)
LOAD linker stubs

.ARM.attributes
                0x00000000       0x30
 .ARM.attributes
                0x00000000       0x22 /usr/lib/gcc/arm-none-eabi/13.2.1/thumb/v7e-m+fp/hard/crti.o
 .ARM.attributes
                0x00000022       0x34 /usr/lib/gcc/arm-none-eabi/13.2.1/thumb/v7e-m+fp/hard/crtbegin.o
 .ARM.attributes
                0x00000056       0x20 /usr/lib/gcc/arm-none-eabi/13.2.1/../../../arm-none-eabi/lib/thumb/v7e-m+fp/hard/crt0.o
 .ARM.attributes
                0x00000076       0x34 _build/main.o
 .ARM.attributes
                0x000000aa       0x34 _build/sx1509.o
 .ARM.attributes
                0x000000de       0x34 _build/lilybuzzer.o
 .ARM.attributes
                0x00000112       0x34 _build/keypad.o
 .ARM.attributes
                0x00000146       0x34 ../lilybuzzer/_build/better_error_handling.o
 .ARM.attributes
                0x0000017a       0x34 ../lilybuzzer/_build/microbit_before_startup.o
 .ARM.attributes
                0x000001ae       0x34 ../lilybuzzer/_build/microbit_nrf_log_backend_uart.o
 .ARM.attributes
                0x000001e2       0x34 ../lilybuzzer/_build/microbit_retarget.o
 .ARM.attributes
                0x00000216       0x34 ../lilybuzzer/_build/app_error_handler_gcc.o
 .ARM.attributes
                0x0000024a       0x34 ../lilybuzzer/_build/app_timer.o
 .ARM.attributes
                0x0000027e       0x34 ../lilybuzzer/_build/app_util_platform.o
 .ARM.attributes
                0x000002b2       0x34 ../lilybuzzer/_build/hardfault_handler_gcc.o
 .ARM.attributes
                0x000002e6       0x34 ../lilybuzzer/_build/nrf_assert.o
 .ARM.attributes
                0x0000031a       0x34 ../lilybuzzer/_build/nrf_atomic.o
 .ARM.attributes
                0x0000034e       0x34 ../lilybuzzer/_build/nrf_balloc.o
 .ARM.attributes
                0x00000382       0x34 ../lilybuzzer/_build/nrf_drv_clock.o
 .ARM.attributes
                0x000003b6       0x34 ../lilybuzzer/_build/nrf_drv_twi.o
 .ARM.attributes
                0x000003ea       0x34 ../lilybuzzer/_build/nrf_drv_uart.o
 .ARM.attributes
                0x0000041e       0x34 ../lilybuzzer/_build/nrf_fprintf.o
 .ARM.attributes
                0x00000452       0x34 ../lilybuzzer/_build/nrf_fprintf_format.o
 .ARM.attributes
                0x00000486       0x34 ../lilybuzzer/_build/nrf_log_backend_serial.o
 .ARM.attributes
                0x000004ba       0x34 ../lilybuzzer/_build/nrf_log_default_backends.o
 .ARM.attributes
                0x000004ee       0x34 ../lilybuzzer/_build/nrf_log_frontend.o
 .ARM.attributes
                0x00000522       0x34 ../lilybuzzer/_build/nrf_log_str_formatter.o
 .ARM.attributes
                0x00000556       0x34 ../lilybuzzer/_build/nrf_memobj.o
 .ARM.attributes
                0x0000058a       0x34 ../lilybuzzer/_build/nrf_pwr_mgmt.o
 .ARM.attributes
                0x000005be       0x34 ../lilybuzzer/_build/nrf_queue.o
 .ARM.attributes
                0x000005f2       0x34 ../lilybuzzer/_build/nrf_ringbuf.o
 .ARM.attributes
                0x00000626       0x34 ../lilybuzzer/_build/nrf_strerror.o
 .ARM.attributes
                0x0000065a       0x34 ../lilybuzzer/_build/nrf_twi_mngr.o
 .ARM.attributes
                0x0000068e       0x34 ../lilybuzzer/_build/nrfx_clock.o
 .ARM.attributes
                0x000006c2       0x34 ../lilybuzzer/_build/nrfx_gpiote.o
 .ARM.attributes
                0x000006f6       0x34 ../lilybuzzer/_build/nrfx_prs.o
 .ARM.attributes
                0x0000072a       0x34 ../lilybuzzer/_build/nrfx_pwm.o
 .ARM.attributes
                0x0000075e       0x34 ../lilybuzzer/_build/nrfx_saadc.o
 .ARM.attributes
                0x00000792       0x34 ../lilybuzzer/_build/nrfx_spim.o
 .ARM.attributes
                0x000007c6       0x34 ../lilybuzzer/_build/nrfx_timer.o
 .ARM.attributes
                0x000007fa       0x34 ../lilybuzzer/_build/nrfx_twim.o
 .ARM.attributes
                0x0000082e       0x34 ../lilybuzzer/_build/nrfx_uart.o
 .ARM.attributes
                0x00000862       0x34 ../lilybuzzer/_build/nrfx_uarte.o
 .ARM.attributes
                0x00000896       0x34 ../lilybuzzer/_build/system_nrf52833.o
 .ARM.attributes
                0x000008ca       0x1c ../lilybuzzer/_build/gcc_startup_nrf52833.os
 .ARM.attributes
                0x000008e6       0x1c /usr/lib/gcc/arm-none-eabi/13.2.1/../../../arm-none-eabi/lib/thumb/v7e-m+fp/hard/libc.a(libc_a-strlen.o)
 .ARM.attributes
                0x00000902       0x34 /usr/lib/gcc/arm-none-eabi/13.2.1/../../../arm-none-eabi/lib/thumb/v7e-m+fp/hard/libc.a(libc_a-memset.o)
 .ARM.attributes
                0x00000936       0x34 /usr/lib/gcc/arm-none-eabi/13.2.1/../../../arm-none-eabi/lib/thumb/v7e-m+fp/hard/libc.a(libc_a-impure.o)
 .ARM.attributes
                0x0000096a       0x34 /usr/lib/gcc/arm-none-eabi/13.2.1/../../../arm-none-eabi/lib/thumb/v7e-m+fp/hard/libc.a(libc_a-setbuf.o)
 .ARM.attributes
                0x0000099e       0x34 /usr/lib/gcc/arm-none-eabi/13.2.1/../../../arm-none-eabi/lib/thumb/v7e-m+fp/hard/libc.a(libc_a-memcmp.o)
 .ARM.attributes
                0x000009d2       0x20 /usr/lib/gcc/arm-none-eabi/13.2.1/../../../arm-none-eabi/lib/thumb/v7e-m+fp/hard/libc.a(libc_a-memcpy.o)
 .ARM.attributes
                0x000009f2       0x34 /usr/lib/gcc/arm-none-eabi/13.2.1/../../../arm-none-eabi/lib/thumb/v7e-m+fp/hard/libc.a(libc_a-init.o)
 .ARM.attributes
                0x00000a26       0x34 /usr/lib/gcc/arm-none-eabi/13.2.1/../../../arm-none-eabi/lib/thumb/v7e-m+fp/hard/libc.a(libc_a-findfp.o)
 .ARM.attributes
                0x00000a5a       0x34 /usr/lib/gcc/arm-none-eabi/13.2.1/../../../arm-none-eabi/lib/thumb/v7e-m+fp/hard/libc.a(libc_a-exit.o)
 .ARM.attributes
                0x00000a8e       0x34 /usr/lib/gcc/arm-none-eabi/13.2.1/../../../arm-none-eabi/lib/thumb/v7e-m+fp/hard/libc.a(libc_a-ctype_.o)
 .ARM.attributes
                0x00000ac2       0x34 /usr/lib/gcc/arm-none-eabi/13.2.1/../../../arm-none-eabi/lib/thumb/v7e-m+fp/hard/libc.a(libc_a-atexit.o)
 .ARM.attributes
                0x00000af6       0x34 /usr/lib/gcc/arm-none-eabi/13.2.1/../../../arm-none-eabi/lib/thumb/v7e-m+fp/hard/libc.a(libc_a-printf.o)
 .ARM.attributes
                0x00000b2a       0x34 /usr/lib/gcc/arm-none-eabi/13.2.1/../../../arm-none-eabi/lib/thumb/v7e-m+fp/hard/libc.a(libc_a-fini.o)
 .ARM.attributes
                0x00000b5e       0x34 /usr/lib/gcc/arm-none-eabi/13.2.1/../../../arm-none-eabi/lib/thumb/v7e-m+fp/hard/libc.a(libc_a-fwalk.o)
 .ARM.attributes
                0x00000b92       0x34 /usr/lib/gcc/arm-none-eabi/13.2.1/../../../arm-none-eabi/lib/thumb/v7e-m+fp/hard/libc.a(libc_a-vfprintf.o)
 .ARM.attributes
                0x00000bc6       0x1c /usr/lib/gcc/arm-none-eabi/13.2.1/../../../arm-none-eabi/lib/thumb/v7e-m+fp/hard/libc.a(libc_a-memchr.o)
 .ARM.attributes
                0x00000be2       0x34 /usr/lib/gcc/arm-none-eabi/13.2.1/../../../arm-none-eabi/lib/thumb/v7e-m+fp/hard/libc.a(libc_a-fflush.o)
 .ARM.attributes
                0x00000c16       0x34 /usr/lib/gcc/arm-none-eabi/13.2.1/../../../arm-none-eabi/lib/thumb/v7e-m+fp/hard/libc.a(libc_a-setvbuf.o)
 .ARM.attributes
                0x00000c4a       0x34 /usr/lib/gcc/arm-none-eabi/13.2.1/../../../arm-none-eabi/lib/thumb/v7e-m+fp/hard/libc.a(libc_a-mallocr.o)
 .ARM.attributes
                0x00000c7e       0x34 /usr/lib/gcc/arm-none-eabi/13.2.1/../../../arm-none-eabi/lib/thumb/v7e-m+fp/hard/libc.a(libc_a-dtoa.o)
 .ARM.attributes
                0x00000cb2       0x34 /usr/lib/gcc/arm-none-eabi/13.2.1/../../../arm-none-eabi/lib/thumb/v7e-m+fp/hard/libc.a(libc_a-wsetup.o)
 .ARM.attributes
                0x00000ce6       0x34 /usr/lib/gcc/arm-none-eabi/13.2.1/../../../arm-none-eabi/lib/thumb/v7e-m+fp/hard/libc.a(libc_a-freer.o)
 .ARM.attributes
                0x00000d1a       0x34 /usr/lib/gcc/arm-none-eabi/13.2.1/../../../arm-none-eabi/lib/thumb/v7e-m+fp/hard/libc.a(libc_a-fclose.o)
 .ARM.attributes
                0x00000d4e       0x34 /usr/lib/gcc/arm-none-eabi/13.2.1/../../../arm-none-eabi/lib/thumb/v7e-m+fp/hard/libc.a(libc_a-__call_atexit.o)
 .ARM.attributes
                0x00000d82       0x34 /usr/lib/gcc/arm-none-eabi/13.2.1/../../../arm-none-eabi/lib/thumb/v7e-m+fp/hard/libc.a(libc_a-malloc.o)
 .ARM.attributes
                0x00000db6       0x34 /usr/lib/gcc/arm-none-eabi/13.2.1/../../../arm-none-eabi/lib/thumb/v7e-m+fp/hard/libc.a(libc_a-sysconf.o)
 .ARM.attributes
                0x00000dea       0x34 /usr/lib/gcc/arm-none-eabi/13.2.1/../../../arm-none-eabi/lib/thumb/v7e-m+fp/hard/libc.a(libc_a-stdio.o)
 .ARM.attributes
                0x00000e1e       0x34 /usr/lib/gcc/arm-none-eabi/13.2.1/../../../arm-none-eabi/lib/thumb/v7e-m+fp/hard/libc.a(libc_a-__atexit.o)
 .ARM.attributes
                0x00000e52       0x34 /usr/lib/gcc/arm-none-eabi/13.2.1/../../../arm-none-eabi/lib/thumb/v7e-m+fp/hard/libc.a(libc_a-writer.o)
 .ARM.attributes
                0x00000e86       0x34 /usr/lib/gcc/arm-none-eabi/13.2.1/../../../arm-none-eabi/lib/thumb/v7e-m+fp/hard/libc.a(libc_a-mlock.o)
 .ARM.attributes
                0x00000eba       0x34 /usr/lib/gcc/arm-none-eabi/13.2.1/../../../arm-none-eabi/lib/thumb/v7e-m+fp/hard/libc.a(libc_a-sbrkr.o)
 .ARM.attributes
                0x00000eee       0x34 /usr/lib/gcc/arm-none-eabi/13.2.1/../../../arm-none-eabi/lib/thumb/v7e-m+fp/hard/libc.a(libc_a-closer.o)
 .ARM.attributes
                0x00000f22       0x34 /usr/lib/gcc/arm-none-eabi/13.2.1/../../../arm-none-eabi/lib/thumb/v7e-m+fp/hard/libc.a(libc_a-sprint_r.o)
 .ARM.attributes
                0x00000f56       0x34 /usr/lib/gcc/arm-none-eabi/13.2.1/../../../arm-none-eabi/lib/thumb/v7e-m+fp/hard/libc.a(libc_a-assert.o)
 .ARM.attributes
                0x00000f8a       0x34 /usr/lib/gcc/arm-none-eabi/13.2.1/../../../arm-none-eabi/lib/thumb/v7e-m+fp/hard/libc.a(libc_a-mprec.o)
 .ARM.attributes
                0x00000fbe       0x34 /usr/lib/gcc/arm-none-eabi/13.2.1/../../../arm-none-eabi/lib/thumb/v7e-m+fp/hard/libc.a(libc_a-localeconv.o)
 .ARM.attributes
                0x00000ff2       0x34 /usr/lib/gcc/arm-none-eabi/13.2.1/../../../arm-none-eabi/lib/thumb/v7e-m+fp/hard/libc.a(libc_a-makebuf.o)
 .ARM.attributes
                0x00001026       0x34 /usr/lib/gcc/arm-none-eabi/13.2.1/../../../arm-none-eabi/lib/thumb/v7e-m+fp/hard/libc.a(libc_a-locale.o)
 .ARM.attributes
                0x0000105a       0x34 /usr/lib/gcc/arm-none-eabi/13.2.1/../../../arm-none-eabi/lib/thumb/v7e-m+fp/hard/libc.a(libc_a-mbtowc_r.o)
 .ARM.attributes
                0x0000108e       0x34 /usr/lib/gcc/arm-none-eabi/13.2.1/../../../arm-none-eabi/lib/thumb/v7e-m+fp/hard/libc.a(libc_a-errno.o)
 .ARM.attributes
                0x000010c2       0x34 /usr/lib/gcc/arm-none-eabi/13.2.1/../../../arm-none-eabi/lib/thumb/v7e-m+fp/hard/libc.a(libc_a-abort.o)
 .ARM.attributes
                0x000010f6       0x34 /usr/lib/gcc/arm-none-eabi/13.2.1/../../../arm-none-eabi/lib/thumb/v7e-m+fp/hard/libc.a(libc_a-callocr.o)
 .ARM.attributes
                0x0000112a       0x34 /usr/lib/gcc/arm-none-eabi/13.2.1/../../../arm-none-eabi/lib/thumb/v7e-m+fp/hard/libc.a(libc_a-readr.o)
 .ARM.attributes
                0x0000115e       0x34 /usr/lib/gcc/arm-none-eabi/13.2.1/../../../arm-none-eabi/lib/thumb/v7e-m+fp/hard/libc.a(libc_a-fiprintf.o)
 .ARM.attributes
                0x00001192       0x34 /usr/lib/gcc/arm-none-eabi/13.2.1/../../../arm-none-eabi/lib/thumb/v7e-m+fp/hard/libc.a(libc_a-wctomb_r.o)
 .ARM.attributes
                0x000011c6       0x34 /usr/lib/gcc/arm-none-eabi/13.2.1/../../../arm-none-eabi/lib/thumb/v7e-m+fp/hard/libc.a(libc_a-lseekr.o)
 .ARM.attributes
                0x000011fa       0x34 /usr/lib/gcc/arm-none-eabi/13.2.1/../../../arm-none-eabi/lib/thumb/v7e-m+fp/hard/libc.a(libc_a-reent.o)
 .ARM.attributes
                0x0000122e       0x34 /usr/lib/gcc/arm-none-eabi/13.2.1/../../../arm-none-eabi/lib/thumb/v7e-m+fp/hard/libc.a(libc_a-fstatr.o)
 .ARM.attributes
                0x00001262       0x34 /usr/lib/gcc/arm-none-eabi/13.2.1/../../../arm-none-eabi/lib/thumb/v7e-m+fp/hard/libc.a(libc_a-isattyr.o)
 .ARM.attributes
                0x00001296       0x34 /usr/lib/gcc/arm-none-eabi/13.2.1/../../../arm-none-eabi/lib/thumb/v7e-m+fp/hard/libc.a(libc_a-fvwrite.o)
 .ARM.attributes
                0x000012ca       0x34 /usr/lib/gcc/arm-none-eabi/13.2.1/../../../arm-none-eabi/lib/thumb/v7e-m+fp/hard/libc.a(libc_a-signal.o)
 .ARM.attributes
                0x000012fe       0x34 /usr/lib/gcc/arm-none-eabi/13.2.1/../../../arm-none-eabi/lib/thumb/v7e-m+fp/hard/libc.a(libc_a-signalr.o)
 .ARM.attributes
                0x00001332       0x34 /usr/lib/gcc/arm-none-eabi/13.2.1/../../../arm-none-eabi/lib/thumb/v7e-m+fp/hard/libc.a(libc_a-memmove.o)
 .ARM.attributes
                0x00001366       0x34 /usr/lib/gcc/arm-none-eabi/13.2.1/../../../arm-none-eabi/lib/thumb/v7e-m+fp/hard/libc.a(libc_a-vfiprintf.o)
 .ARM.attributes
                0x0000139a       0x34 /usr/lib/gcc/arm-none-eabi/13.2.1/../../../arm-none-eabi/lib/thumb/v7e-m+fp/hard/libc.a(libc_a-reallocr.o)
 .ARM.attributes
                0x000013ce       0x34 /usr/lib/gcc/arm-none-eabi/13.2.1/../../../arm-none-eabi/lib/thumb/v7e-m+fp/hard/libnosys.a(close.o)
 .ARM.attributes
                0x00001402       0x34 /usr/lib/gcc/arm-none-eabi/13.2.1/../../../arm-none-eabi/lib/thumb/v7e-m+fp/hard/libnosys.a(fstat.o)
 .ARM.attributes
                0x00001436       0x34 /usr/lib/gcc/arm-none-eabi/13.2.1/../../../arm-none-eabi/lib/thumb/v7e-m+fp/hard/libnosys.a(getpid.o)
 .ARM.attributes
                0x0000146a       0x34 /usr/lib/gcc/arm-none-eabi/13.2.1/../../../arm-none-eabi/lib/thumb/v7e-m+fp/hard/libnosys.a(isatty.o)
 .ARM.attributes
                0x0000149e       0x34 /usr/lib/gcc/arm-none-eabi/13.2.1/../../../arm-none-eabi/lib/thumb/v7e-m+fp/hard/libnosys.a(kill.o)
 .ARM.attributes
                0x000014d2       0x34 /usr/lib/gcc/arm-none-eabi/13.2.1/../../../arm-none-eabi/lib/thumb/v7e-m+fp/hard/libnosys.a(lseek.o)
 .ARM.attributes
                0x00001506       0x34 /usr/lib/gcc/arm-none-eabi/13.2.1/../../../arm-none-eabi/lib/thumb/v7e-m+fp/hard/libnosys.a(sbrk.o)
 .ARM.attributes
                0x0000153a       0x34 /usr/lib/gcc/arm-none-eabi/13.2.1/../../../arm-none-eabi/lib/thumb/v7e-m+fp/hard/libnosys.a(_exit.o)
 .ARM.attributes
                0x0000156e       0x22 /usr/lib/gcc/arm-none-eabi/13.2.1/thumb/v7e-m+fp/hard/libgcc.a(_arm_addsubdf3.o)
 .ARM.attributes
                0x00001590       0x22 /usr/lib/gcc/arm-none-eabi/13.2.1/thumb/v7e-m+fp/hard/libgcc.a(_arm_muldivdf3.o)
 .ARM.attributes
                0x000015b2       0x22 /usr/lib/gcc/arm-none-eabi/13.2.1/thumb/v7e-m+fp/hard/libgcc.a(_arm_cmpdf2.o)
 .ARM.attributes
                0x000015d4       0x22 /usr/lib/gcc/arm-none-eabi/13.2.1/thumb/v7e-m+fp/hard/libgcc.a(_arm_unorddf2.o)
 .ARM.attributes
                0x000015f6       0x22 /usr/lib/gcc/arm-none-eabi/13.2.1/thumb/v7e-m+fp/hard/libgcc.a(_arm_fixdfsi.o)
 .ARM.attributes
                0x00001618       0x34 /usr/lib/gcc/arm-none-eabi/13.2.1/thumb/v7e-m+fp/hard/crtend.o
 .ARM.attributes
                0x0000164c       0x22 /usr/lib/gcc/arm-none-eabi/13.2.1/thumb/v7e-m+fp/hard/crtn.o

.comment        0x00000000       0x26
 .comment       0x00000000       0x26 /usr/lib/gcc/arm-none-eabi/13.2.1/thumb/v7e-m+fp/hard/crtbegin.o
                                 0x27 (size before relaxing)
 .comment       0x00000026       0x27 _build/main.o
 .comment       0x00000026       0x27 _build/sx1509.o
 .comment       0x00000026       0x27 _build/lilybuzzer.o
 .comment       0x00000026       0x27 _build/keypad.o
 .comment       0x00000026       0x27 ../lilybuzzer/_build/better_error_handling.o
 .comment       0x00000026       0x27 ../lilybuzzer/_build/microbit_before_startup.o
 .comment       0x00000026       0x27 ../lilybuzzer/_build/microbit_nrf_log_backend_uart.o
 .comment       0x00000026       0x27 ../lilybuzzer/_build/microbit_retarget.o
 .comment       0x00000026       0x27 ../lilybuzzer/_build/app_error_handler_gcc.o
 .comment       0x00000026       0x27 ../lilybuzzer/_build/app_timer.o
 .comment       0x00000026       0x27 ../lilybuzzer/_build/app_util_platform.o
 .comment       0x00000026       0x27 ../lilybuzzer/_build/hardfault_handler_gcc.o
 .comment       0x00000026       0x27 ../lilybuzzer/_build/nrf_assert.o
 .comment       0x00000026       0x27 ../lilybuzzer/_build/nrf_atomic.o
 .comment       0x00000026       0x27 ../lilybuzzer/_build/nrf_balloc.o
 .comment       0x00000026       0x27 ../lilybuzzer/_build/nrf_drv_clock.o
 .comment       0x00000026       0x27 ../lilybuzzer/_build/nrf_drv_twi.o
 .comment       0x00000026       0x27 ../lilybuzzer/_build/nrf_drv_uart.o
 .comment       0x00000026       0x27 ../lilybuzzer/_build/nrf_fprintf.o
 .comment       0x00000026       0x27 ../lilybuzzer/_build/nrf_fprintf_format.o
 .comment       0x00000026       0x27 ../lilybuzzer/_build/nrf_log_backend_serial.o
 .comment       0x00000026       0x27 ../lilybuzzer/_build/nrf_log_default_backends.o
 .comment       0x00000026       0x27 ../lilybuzzer/_build/nrf_log_frontend.o
 .comment       0x00000026       0x27 ../lilybuzzer/_build/nrf_log_str_formatter.o
 .comment       0x00000026       0x27 ../lilybuzzer/_build/nrf_memobj.o
 .comment       0x00000026       0x27 ../lilybuzzer/_build/nrf_pwr_mgmt.o
 .comment       0x00000026       0x27 ../lilybuzzer/_build/nrf_queue.o
 .comment       0x00000026       0x27 ../lilybuzzer/_build/nrf_ringbuf.o
 .comment       0x00000026       0x27 ../lilybuzzer/_build/nrf_strerror.o
 .comment       0x00000026       0x27 ../lilybuzzer/_build/nrf_twi_mngr.o
 .comment       0x00000026       0x27 ../lilybuzzer/_build/nrfx_clock.o
 .comment       0x00000026       0x27 ../lilybuzzer/_build/nrfx_gpiote.o
 .comment       0x00000026       0x27 ../lilybuzzer/_build/nrfx_prs.o
 .comment       0x00000026       0x27 ../lilybuzzer/_build/nrfx_pwm.o
 .comment       0x00000026       0x27 ../lilybuzzer/_build/nrfx_saadc.o
 .comment       0x00000026       0x27 ../lilybuzzer/_build/nrfx_spim.o
 .comment       0x00000026       0x27 ../lilybuzzer/_build/nrfx_timer.o
 .comment       0x00000026       0x27 ../lilybuzzer/_build/nrfx_twim.o
 .comment       0x00000026       0x27 ../lilybuzzer/_build/nrfx_uart.o
 .comment       0x00000026       0x27 ../lilybuzzer/_build/nrfx_uarte.o
 .comment       0x00000026       0x27 ../lilybuzzer/_build/system_nrf52833.o
 .comment       0x00000026       0x27 /usr/lib/gcc/arm-none-eabi/13.2.1/../../../arm-none-eabi/lib/thumb/v7e-m+fp/hard/libc.a(libc_a-memset.o)
 .comment       0x00000026       0x27 /usr/lib/gcc/arm-none-eabi/13.2.1/../../../arm-none-eabi/lib/thumb/v7e-m+fp/hard/libc.a(libc_a-impure.o)
 .comment       0x00000026       0x27 /usr/lib/gcc/arm-none-eabi/13.2.1/../../../arm-none-eabi/lib/thumb/v7e-m+fp/hard/libc.a(libc_a-setbuf.o)
 .comment       0x00000026       0x27 /usr/lib/gcc/arm-none-eabi/13.2.1/../../../arm-none-eabi/lib/thumb/v7e-m+fp/hard/libc.a(libc_a-memcmp.o)
 .comment       0x00000026       0x27 /usr/lib/gcc/arm-none-eabi/13.2.1/../../../arm-none-eabi/lib/thumb/v7e-m+fp/hard/libc.a(libc_a-init.o)
 .comment       0x00000026       0x27 /usr/lib/gcc/arm-none-eabi/13.2.1/../../../arm-none-eabi/lib/thumb/v7e-m+fp/hard/libc.a(libc_a-findfp.o)
 .comment       0x00000026       0x27 /usr/lib/gcc/arm-none-eabi/13.2.1/../../../arm-none-eabi/lib/thumb/v7e-m+fp/hard/libc.a(libc_a-exit.o)
 .comment       0x00000026       0x27 /usr/lib/gcc/arm-none-eabi/13.2.1/../../../arm-none-eabi/lib/thumb/v7e-m+fp/hard/libc.a(libc_a-ctype_.o)
 .comment       0x00000026       0x27 /usr/lib/gcc/arm-none-eabi/13.2.1/../../../arm-none-eabi/lib/thumb/v7e-m+fp/hard/libc.a(libc_a-atexit.o)
 .comment       0x00000026       0x27 /usr/lib/gcc/arm-none-eabi/13.2.1/../../../arm-none-eabi/lib/thumb/v7e-m+fp/hard/libc.a(libc_a-printf.o)
 .comment       0x00000026       0x27 /usr/lib/gcc/arm-none-eabi/13.2.1/../../../arm-none-eabi/lib/thumb/v7e-m+fp/hard/libc.a(libc_a-fini.o)
 .comment       0x00000026       0x27 /usr/lib/gcc/arm-none-eabi/13.2.1/../../../arm-none-eabi/lib/thumb/v7e-m+fp/hard/libc.a(libc_a-fwalk.o)
 .comment       0x00000026       0x27 /usr/lib/gcc/arm-none-eabi/13.2.1/../../../arm-none-eabi/lib/thumb/v7e-m+fp/hard/libc.a(libc_a-vfprintf.o)
 .comment       0x00000026       0x27 /usr/lib/gcc/arm-none-eabi/13.2.1/../../../arm-none-eabi/lib/thumb/v7e-m+fp/hard/libc.a(libc_a-fflush.o)
 .comment       0x00000026       0x27 /usr/lib/gcc/arm-none-eabi/13.2.1/../../../arm-none-eabi/lib/thumb/v7e-m+fp/hard/libc.a(libc_a-setvbuf.o)
 .comment       0x00000026       0x27 /usr/lib/gcc/arm-none-eabi/13.2.1/../../../arm-none-eabi/lib/thumb/v7e-m+fp/hard/libc.a(libc_a-mallocr.o)
 .comment       0x00000026       0x27 /usr/lib/gcc/arm-none-eabi/13.2.1/../../../arm-none-eabi/lib/thumb/v7e-m+fp/hard/libc.a(libc_a-dtoa.o)
 .comment       0x00000026       0x27 /usr/lib/gcc/arm-none-eabi/13.2.1/../../../arm-none-eabi/lib/thumb/v7e-m+fp/hard/libc.a(libc_a-wsetup.o)
 .comment       0x00000026       0x27 /usr/lib/gcc/arm-none-eabi/13.2.1/../../../arm-none-eabi/lib/thumb/v7e-m+fp/hard/libc.a(libc_a-freer.o)
 .comment       0x00000026       0x27 /usr/lib/gcc/arm-none-eabi/13.2.1/../../../arm-none-eabi/lib/thumb/v7e-m+fp/hard/libc.a(libc_a-fclose.o)
 .comment       0x00000026       0x27 /usr/lib/gcc/arm-none-eabi/13.2.1/../../../arm-none-eabi/lib/thumb/v7e-m+fp/hard/libc.a(libc_a-__call_atexit.o)
 .comment       0x00000026       0x27 /usr/lib/gcc/arm-none-eabi/13.2.1/../../../arm-none-eabi/lib/thumb/v7e-m+fp/hard/libc.a(libc_a-malloc.o)
 .comment       0x00000026       0x27 /usr/lib/gcc/arm-none-eabi/13.2.1/../../../arm-none-eabi/lib/thumb/v7e-m+fp/hard/libc.a(libc_a-sysconf.o)
 .comment       0x00000026       0x27 /usr/lib/gcc/arm-none-eabi/13.2.1/../../../arm-none-eabi/lib/thumb/v7e-m+fp/hard/libc.a(libc_a-stdio.o)
 .comment       0x00000026       0x27 /usr/lib/gcc/arm-none-eabi/13.2.1/../../../arm-none-eabi/lib/thumb/v7e-m+fp/hard/libc.a(libc_a-__atexit.o)
 .comment       0x00000026       0x27 /usr/lib/gcc/arm-none-eabi/13.2.1/../../../arm-none-eabi/lib/thumb/v7e-m+fp/hard/libc.a(libc_a-writer.o)
 .comment       0x00000026       0x27 /usr/lib/gcc/arm-none-eabi/13.2.1/../../../arm-none-eabi/lib/thumb/v7e-m+fp/hard/libc.a(libc_a-mlock.o)
 .comment       0x00000026       0x27 /usr/lib/gcc/arm-none-eabi/13.2.1/../../../arm-none-eabi/lib/thumb/v7e-m+fp/hard/libc.a(libc_a-sbrkr.o)
 .comment       0x00000026       0x27 /usr/lib/gcc/arm-none-eabi/13.2.1/../../../arm-none-eabi/lib/thumb/v7e-m+fp/hard/libc.a(libc_a-closer.o)
 .comment       0x00000026       0x27 /usr/lib/gcc/arm-none-eabi/13.2.1/../../../arm-none-eabi/lib/thumb/v7e-m+fp/hard/libc.a(libc_a-sprint_r.o)
 .comment       0x00000026       0x27 /usr/lib/gcc/arm-none-eabi/13.2.1/../../../arm-none-eabi/lib/thumb/v7e-m+fp/hard/libc.a(libc_a-assert.o)
 .comment       0x00000026       0x27 /usr/lib/gcc/arm-none-eabi/13.2.1/../../../arm-none-eabi/lib/thumb/v7e-m+fp/hard/libc.a(libc_a-mprec.o)
 .comment       0x00000026       0x27 /usr/lib/gcc/arm-none-eabi/13.2.1/../../../arm-none-eabi/lib/thumb/v7e-m+fp/hard/libc.a(libc_a-localeconv.o)
 .comment       0x00000026       0x27 /usr/lib/gcc/arm-none-eabi/13.2.1/../../../arm-none-eabi/lib/thumb/v7e-m+fp/hard/libc.a(libc_a-makebuf.o)
 .comment       0x00000026       0x27 /usr/lib/gcc/arm-none-eabi/13.2.1/../../../arm-none-eabi/lib/thumb/v7e-m+fp/hard/libc.a(libc_a-locale.o)
 .comment       0x00000026       0x27 /usr/lib/gcc/arm-none-eabi/13.2.1/../../../arm-none-eabi/lib/thumb/v7e-m+fp/hard/libc.a(libc_a-mbtowc_r.o)
 .comment       0x00000026       0x27 /usr/lib/gcc/arm-none-eabi/13.2.1/../../../arm-none-eabi/lib/thumb/v7e-m+fp/hard/libc.a(libc_a-errno.o)
 .comment       0x00000026       0x27 /usr/lib/gcc/arm-none-eabi/13.2.1/../../../arm-none-eabi/lib/thumb/v7e-m+fp/hard/libc.a(libc_a-abort.o)
 .comment       0x00000026       0x27 /usr/lib/gcc/arm-none-eabi/13.2.1/../../../arm-none-eabi/lib/thumb/v7e-m+fp/hard/libc.a(libc_a-callocr.o)
 .comment       0x00000026       0x27 /usr/lib/gcc/arm-none-eabi/13.2.1/../../../arm-none-eabi/lib/thumb/v7e-m+fp/hard/libc.a(libc_a-readr.o)
 .comment       0x00000026       0x27 /usr/lib/gcc/arm-none-eabi/13.2.1/../../../arm-none-eabi/lib/thumb/v7e-m+fp/hard/libc.a(libc_a-fiprintf.o)
 .comment       0x00000026       0x27 /usr/lib/gcc/arm-none-eabi/13.2.1/../../../arm-none-eabi/lib/thumb/v7e-m+fp/hard/libc.a(libc_a-wctomb_r.o)
 .comment       0x00000026       0x27 /usr/lib/gcc/arm-none-eabi/13.2.1/../../../arm-none-eabi/lib/thumb/v7e-m+fp/hard/libc.a(libc_a-lseekr.o)
 .comment       0x00000026       0x27 /usr/lib/gcc/arm-none-eabi/13.2.1/../../../arm-none-eabi/lib/thumb/v7e-m+fp/hard/libc.a(libc_a-reent.o)
 .comment       0x00000026       0x27 /usr/lib/gcc/arm-none-eabi/13.2.1/../../../arm-none-eabi/lib/thumb/v7e-m+fp/hard/libc.a(libc_a-fstatr.o)
 .comment       0x00000026       0x27 /usr/lib/gcc/arm-none-eabi/13.2.1/../../../arm-none-eabi/lib/thumb/v7e-m+fp/hard/libc.a(libc_a-isattyr.o)
 .comment       0x00000026       0x27 /usr/lib/gcc/arm-none-eabi/13.2.1/../../../arm-none-eabi/lib/thumb/v7e-m+fp/hard/libc.a(libc_a-fvwrite.o)
 .comment       0x00000026       0x27 /usr/lib/gcc/arm-none-eabi/13.2.1/../../../arm-none-eabi/lib/thumb/v7e-m+fp/hard/libc.a(libc_a-signal.o)
 .comment       0x00000026       0x27 /usr/lib/gcc/arm-none-eabi/13.2.1/../../../arm-none-eabi/lib/thumb/v7e-m+fp/hard/libc.a(libc_a-signalr.o)
 .comment       0x00000026       0x27 /usr/lib/gcc/arm-none-eabi/13.2.1/../../../arm-none-eabi/lib/thumb/v7e-m+fp/hard/libc.a(libc_a-memmove.o)
 .comment       0x00000026       0x27 /usr/lib/gcc/arm-none-eabi/13.2.1/../../../arm-none-eabi/lib/thumb/v7e-m+fp/hard/libc.a(libc_a-vfiprintf.o)
 .comment       0x00000026       0x27 /usr/lib/gcc/arm-none-eabi/13.2.1/../../../arm-none-eabi/lib/thumb/v7e-m+fp/hard/libc.a(libc_a-reallocr.o)
 .comment       0x00000026       0x27 /usr/lib/gcc/arm-none-eabi/13.2.1/../../../arm-none-eabi/lib/thumb/v7e-m+fp/hard/libnosys.a(close.o)
 .comment       0x00000026       0x27 /usr/lib/gcc/arm-none-eabi/13.2.1/../../../arm-none-eabi/lib/thumb/v7e-m+fp/hard/libnosys.a(fstat.o)
 .comment       0x00000026       0x27 /usr/lib/gcc/arm-none-eabi/13.2.1/../../../arm-none-eabi/lib/thumb/v7e-m+fp/hard/libnosys.a(getpid.o)
 .comment       0x00000026       0x27 /usr/lib/gcc/arm-none-eabi/13.2.1/../../../arm-none-eabi/lib/thumb/v7e-m+fp/hard/libnosys.a(isatty.o)
 .comment       0x00000026       0x27 /usr/lib/gcc/arm-none-eabi/13.2.1/../../../arm-none-eabi/lib/thumb/v7e-m+fp/hard/libnosys.a(kill.o)
 .comment       0x00000026       0x27 /usr/lib/gcc/arm-none-eabi/13.2.1/../../../arm-none-eabi/lib/thumb/v7e-m+fp/hard/libnosys.a(lseek.o)
 .comment       0x00000026       0x27 /usr/lib/gcc/arm-none-eabi/13.2.1/../../../arm-none-eabi/lib/thumb/v7e-m+fp/hard/libnosys.a(sbrk.o)
 .comment       0x00000026       0x27 /usr/lib/gcc/arm-none-eabi/13.2.1/../../../arm-none-eabi/lib/thumb/v7e-m+fp/hard/libnosys.a(_exit.o)
 .comment       0x00000026       0x27 /usr/lib/gcc/arm-none-eabi/13.2.1/thumb/v7e-m+fp/hard/crtend.o

.debug_line     0x00000000     0xce01
 .debug_line    0x00000000       0x75 /usr/lib/gcc/arm-none-eabi/13.2.1/../../../arm-none-eabi/lib/thumb/v7e-m+fp/hard/crt0.o
 .debug_line    0x00000075       0x86 /usr/lib/gcc/arm-none-eabi/13.2.1/../../../arm-none-eabi/lib/thumb/v7e-m+fp/hard/libc.a(libc_a-strlen.o)
 .debug_line    0x000000fb      0x1b6 /usr/lib/gcc/arm-none-eabi/13.2.1/../../../arm-none-eabi/lib/thumb/v7e-m+fp/hard/libc.a(libc_a-memset.o)
 .debug_line    0x000002b1       0xe7 /usr/lib/gcc/arm-none-eabi/13.2.1/../../../arm-none-eabi/lib/thumb/v7e-m+fp/hard/libc.a(libc_a-impure.o)
 .debug_line    0x00000398      0x152 /usr/lib/gcc/arm-none-eabi/13.2.1/../../../arm-none-eabi/lib/thumb/v7e-m+fp/hard/libc.a(libc_a-setbuf.o)
 .debug_line    0x000004ea      0x17a /usr/lib/gcc/arm-none-eabi/13.2.1/../../../arm-none-eabi/lib/thumb/v7e-m+fp/hard/libc.a(libc_a-memcmp.o)
 .debug_line    0x00000664       0xb9 /usr/lib/gcc/arm-none-eabi/13.2.1/../../../arm-none-eabi/lib/thumb/v7e-m+fp/hard/libc.a(libc_a-memcpy.o)
 .debug_line    0x0000071d      0x11e /usr/lib/gcc/arm-none-eabi/13.2.1/../../../arm-none-eabi/lib/thumb/v7e-m+fp/hard/libc.a(libc_a-init.o)
 .debug_line    0x0000083b      0x4fc /usr/lib/gcc/arm-none-eabi/13.2.1/../../../arm-none-eabi/lib/thumb/v7e-m+fp/hard/libc.a(libc_a-findfp.o)
 .debug_line    0x00000d37      0x139 /usr/lib/gcc/arm-none-eabi/13.2.1/../../../arm-none-eabi/lib/thumb/v7e-m+fp/hard/libc.a(libc_a-exit.o)
 .debug_line    0x00000e70       0x97 /usr/lib/gcc/arm-none-eabi/13.2.1/../../../arm-none-eabi/lib/thumb/v7e-m+fp/hard/libc.a(libc_a-ctype_.o)
 .debug_line    0x00000f07       0xc3 /usr/lib/gcc/arm-none-eabi/13.2.1/../../../arm-none-eabi/lib/thumb/v7e-m+fp/hard/libc.a(libc_a-atexit.o)
 .debug_line    0x00000fca      0x1c5 /usr/lib/gcc/arm-none-eabi/13.2.1/../../../arm-none-eabi/lib/thumb/v7e-m+fp/hard/libc.a(libc_a-printf.o)
 .debug_line    0x0000118f       0xd2 /usr/lib/gcc/arm-none-eabi/13.2.1/../../../arm-none-eabi/lib/thumb/v7e-m+fp/hard/libc.a(libc_a-fini.o)
 .debug_line    0x00001261      0x1d1 /usr/lib/gcc/arm-none-eabi/13.2.1/../../../arm-none-eabi/lib/thumb/v7e-m+fp/hard/libc.a(libc_a-fwalk.o)
 .debug_line    0x00001432     0x1a85 /usr/lib/gcc/arm-none-eabi/13.2.1/../../../arm-none-eabi/lib/thumb/v7e-m+fp/hard/libc.a(libc_a-vfprintf.o)
 .debug_line    0x00002eb7       0x84 /usr/lib/gcc/arm-none-eabi/13.2.1/../../../arm-none-eabi/lib/thumb/v7e-m+fp/hard/libc.a(libc_a-memchr.o)
 .debug_line    0x00002f3b      0x45d /usr/lib/gcc/arm-none-eabi/13.2.1/../../../arm-none-eabi/lib/thumb/v7e-m+fp/hard/libc.a(libc_a-fflush.o)
 .debug_line    0x00003398      0x374 /usr/lib/gcc/arm-none-eabi/13.2.1/../../../arm-none-eabi/lib/thumb/v7e-m+fp/hard/libc.a(libc_a-setvbuf.o)
 .debug_line    0x0000370c      0x8eb /usr/lib/gcc/arm-none-eabi/13.2.1/../../../arm-none-eabi/lib/thumb/v7e-m+fp/hard/libc.a(libc_a-mallocr.o)
 .debug_line    0x00003ff7     0x145e /usr/lib/gcc/arm-none-eabi/13.2.1/../../../arm-none-eabi/lib/thumb/v7e-m+fp/hard/libc.a(libc_a-dtoa.o)
 .debug_line    0x00005455      0x2b0 /usr/lib/gcc/arm-none-eabi/13.2.1/../../../arm-none-eabi/lib/thumb/v7e-m+fp/hard/libc.a(libc_a-wsetup.o)
 .debug_line    0x00005705      0x545 /usr/lib/gcc/arm-none-eabi/13.2.1/../../../arm-none-eabi/lib/thumb/v7e-m+fp/hard/libc.a(libc_a-freer.o)
 .debug_line    0x00005c4a      0x253 /usr/lib/gcc/arm-none-eabi/13.2.1/../../../arm-none-eabi/lib/thumb/v7e-m+fp/hard/libc.a(libc_a-fclose.o)
 .debug_line    0x00005e9d      0x27f /usr/lib/gcc/arm-none-eabi/13.2.1/../../../arm-none-eabi/lib/thumb/v7e-m+fp/hard/libc.a(libc_a-__call_atexit.o)
 .debug_line    0x0000611c      0x16b /usr/lib/gcc/arm-none-eabi/13.2.1/../../../arm-none-eabi/lib/thumb/v7e-m+fp/hard/libc.a(libc_a-malloc.o)
 .debug_line    0x00006287       0xe6 /usr/lib/gcc/arm-none-eabi/13.2.1/../../../arm-none-eabi/lib/thumb/v7e-m+fp/hard/libc.a(libc_a-sysconf.o)
 .debug_line    0x0000636d      0x22b /usr/lib/gcc/arm-none-eabi/13.2.1/../../../arm-none-eabi/lib/thumb/v7e-m+fp/hard/libc.a(libc_a-stdio.o)
 .debug_line    0x00006598      0x14f /usr/lib/gcc/arm-none-eabi/13.2.1/../../../arm-none-eabi/lib/thumb/v7e-m+fp/hard/libc.a(libc_a-__atexit.o)
 .debug_line    0x000066e7      0x199 /usr/lib/gcc/arm-none-eabi/13.2.1/../../../arm-none-eabi/lib/thumb/v7e-m+fp/hard/libc.a(libc_a-writer.o)
 .debug_line    0x00006880      0x153 /usr/lib/gcc/arm-none-eabi/13.2.1/../../../arm-none-eabi/lib/thumb/v7e-m+fp/hard/libc.a(libc_a-mlock.o)
 .debug_line    0x000069d3      0x193 /usr/lib/gcc/arm-none-eabi/13.2.1/../../../arm-none-eabi/lib/thumb/v7e-m+fp/hard/libc.a(libc_a-sbrkr.o)
 .debug_line    0x00006b66      0x193 /usr/lib/gcc/arm-none-eabi/13.2.1/../../../arm-none-eabi/lib/thumb/v7e-m+fp/hard/libc.a(libc_a-closer.o)
 .debug_line    0x00006cf9      0x189 /usr/lib/gcc/arm-none-eabi/13.2.1/../../../arm-none-eabi/lib/thumb/v7e-m+fp/hard/libc.a(libc_a-sprint_r.o)
 .debug_line    0x00006e82      0x1ad /usr/lib/gcc/arm-none-eabi/13.2.1/../../../arm-none-eabi/lib/thumb/v7e-m+fp/hard/libc.a(libc_a-assert.o)
 .debug_line    0x0000702f     0x1424 /usr/lib/gcc/arm-none-eabi/13.2.1/../../../arm-none-eabi/lib/thumb/v7e-m+fp/hard/libc.a(libc_a-mprec.o)
 .debug_line    0x00008453      0x17e /usr/lib/gcc/arm-none-eabi/13.2.1/../../../arm-none-eabi/lib/thumb/v7e-m+fp/hard/libc.a(libc_a-localeconv.o)
 .debug_line    0x000085d1      0x3bd /usr/lib/gcc/arm-none-eabi/13.2.1/../../../arm-none-eabi/lib/thumb/v7e-m+fp/hard/libc.a(libc_a-makebuf.o)
 .debug_line    0x0000898e      0x29f /usr/lib/gcc/arm-none-eabi/13.2.1/../../../arm-none-eabi/lib/thumb/v7e-m+fp/hard/libc.a(libc_a-locale.o)
 .debug_line    0x00008c2d      0x214 /usr/lib/gcc/arm-none-eabi/13.2.1/../../../arm-none-eabi/lib/thumb/v7e-m+fp/hard/libc.a(libc_a-mbtowc_r.o)
 .debug_line    0x00008e41      0x10c /usr/lib/gcc/arm-none-eabi/13.2.1/../../../arm-none-eabi/lib/thumb/v7e-m+fp/hard/libc.a(libc_a-errno.o)
 .debug_line    0x00008f4d      0x115 /usr/lib/gcc/arm-none-eabi/13.2.1/../../../arm-none-eabi/lib/thumb/v7e-m+fp/hard/libc.a(libc_a-abort.o)
 .debug_line    0x00009062      0x208 /usr/lib/gcc/arm-none-eabi/13.2.1/../../../arm-none-eabi/lib/thumb/v7e-m+fp/hard/libc.a(libc_a-callocr.o)
 .debug_line    0x0000926a      0x198 /usr/lib/gcc/arm-none-eabi/13.2.1/../../../arm-none-eabi/lib/thumb/v7e-m+fp/hard/libc.a(libc_a-readr.o)
 .debug_line    0x00009402      0x1a9 /usr/lib/gcc/arm-none-eabi/13.2.1/../../../arm-none-eabi/lib/thumb/v7e-m+fp/hard/libc.a(libc_a-fiprintf.o)
 .debug_line    0x000095ab      0x1fe /usr/lib/gcc/arm-none-eabi/13.2.1/../../../arm-none-eabi/lib/thumb/v7e-m+fp/hard/libc.a(libc_a-wctomb_r.o)
 .debug_line    0x000097a9      0x199 /usr/lib/gcc/arm-none-eabi/13.2.1/../../../arm-none-eabi/lib/thumb/v7e-m+fp/hard/libc.a(libc_a-lseekr.o)
 .debug_line    0x00009942      0x1f0 /usr/lib/gcc/arm-none-eabi/13.2.1/../../../arm-none-eabi/lib/thumb/v7e-m+fp/hard/libc.a(libc_a-reent.o)
 .debug_line    0x00009b32      0x21c /usr/lib/gcc/arm-none-eabi/13.2.1/../../../arm-none-eabi/lib/thumb/v7e-m+fp/hard/libc.a(libc_a-fstatr.o)
 .debug_line    0x00009d4e      0x194 /usr/lib/gcc/arm-none-eabi/13.2.1/../../../arm-none-eabi/lib/thumb/v7e-m+fp/hard/libc.a(libc_a-isattyr.o)
 .debug_line    0x00009ee2      0x5ec /usr/lib/gcc/arm-none-eabi/13.2.1/../../../arm-none-eabi/lib/thumb/v7e-m+fp/hard/libc.a(libc_a-fvwrite.o)
 .debug_line    0x0000a4ce      0x66f /usr/lib/gcc/arm-none-eabi/13.2.1/../../../arm-none-eabi/lib/thumb/v7e-m+fp/hard/libc.a(libc_a-signal.o)
 .debug_line    0x0000ab3d      0x1c5 /usr/lib/gcc/arm-none-eabi/13.2.1/../../../arm-none-eabi/lib/thumb/v7e-m+fp/hard/libc.a(libc_a-signalr.o)
 .debug_line    0x0000ad02      0x1f1 /usr/lib/gcc/arm-none-eabi/13.2.1/../../../arm-none-eabi/lib/thumb/v7e-m+fp/hard/libc.a(libc_a-memmove.o)
 .debug_line    0x0000aef3      0xfe2 /usr/lib/gcc/arm-none-eabi/13.2.1/../../../arm-none-eabi/lib/thumb/v7e-m+fp/hard/libc.a(libc_a-vfiprintf.o)
 .debug_line    0x0000bed5      0x698 /usr/lib/gcc/arm-none-eabi/13.2.1/../../../arm-none-eabi/lib/thumb/v7e-m+fp/hard/libc.a(libc_a-reallocr.o)
 .debug_line    0x0000c56d       0x6d /usr/lib/gcc/arm-none-eabi/13.2.1/../../../arm-none-eabi/lib/thumb/v7e-m+fp/hard/libnosys.a(close.o)
 .debug_line    0x0000c5da      0x149 /usr/lib/gcc/arm-none-eabi/13.2.1/../../../arm-none-eabi/lib/thumb/v7e-m+fp/hard/libnosys.a(fstat.o)
 .debug_line    0x0000c723       0x6d /usr/lib/gcc/arm-none-eabi/13.2.1/../../../arm-none-eabi/lib/thumb/v7e-m+fp/hard/libnosys.a(getpid.o)
 .debug_line    0x0000c790       0x6e /usr/lib/gcc/arm-none-eabi/13.2.1/../../../arm-none-eabi/lib/thumb/v7e-m+fp/hard/libnosys.a(isatty.o)
 .debug_line    0x0000c7fe       0x6c /usr/lib/gcc/arm-none-eabi/13.2.1/../../../arm-none-eabi/lib/thumb/v7e-m+fp/hard/libnosys.a(kill.o)
 .debug_line    0x0000c86a       0x6e /usr/lib/gcc/arm-none-eabi/13.2.1/../../../arm-none-eabi/lib/thumb/v7e-m+fp/hard/libnosys.a(lseek.o)
 .debug_line    0x0000c8d8       0x76 /usr/lib/gcc/arm-none-eabi/13.2.1/../../../arm-none-eabi/lib/thumb/v7e-m+fp/hard/libnosys.a(sbrk.o)
 .debug_line    0x0000c94e       0x61 /usr/lib/gcc/arm-none-eabi/13.2.1/../../../arm-none-eabi/lib/thumb/v7e-m+fp/hard/libnosys.a(_exit.o)
 .debug_line    0x0000c9af      0x16f /usr/lib/gcc/arm-none-eabi/13.2.1/thumb/v7e-m+fp/hard/libgcc.a(_arm_addsubdf3.o)
 .debug_line    0x0000cb1e      0x184 /usr/lib/gcc/arm-none-eabi/13.2.1/thumb/v7e-m+fp/hard/libgcc.a(_arm_muldivdf3.o)
 .debug_line    0x0000cca2       0xa6 /usr/lib/gcc/arm-none-eabi/13.2.1/thumb/v7e-m+fp/hard/libgcc.a(_arm_cmpdf2.o)
 .debug_line    0x0000cd48       0x57 /usr/lib/gcc/arm-none-eabi/13.2.1/thumb/v7e-m+fp/hard/libgcc.a(_arm_unorddf2.o)
 .debug_line    0x0000cd9f       0x62 /usr/lib/gcc/arm-none-eabi/13.2.1/thumb/v7e-m+fp/hard/libgcc.a(_arm_fixdfsi.o)

.debug_line_str
                0x00000000      0x1ca
 .debug_line_str
                0x00000000      0x1ca /usr/lib/gcc/arm-none-eabi/13.2.1/../../../arm-none-eabi/lib/thumb/v7e-m+fp/hard/crt0.o
                                 0x82 (size before relaxing)
 .debug_line_str
                0x000001ca       0x93 /usr/lib/gcc/arm-none-eabi/13.2.1/../../../arm-none-eabi/lib/thumb/v7e-m+fp/hard/libc.a(libc_a-strlen.o)
 .debug_line_str
                0x000001ca       0x94 /usr/lib/gcc/arm-none-eabi/13.2.1/../../../arm-none-eabi/lib/thumb/v7e-m+fp/hard/libc.a(libc_a-memcpy.o)
 .debug_line_str
                0x000001ca       0x8d /usr/lib/gcc/arm-none-eabi/13.2.1/../../../arm-none-eabi/lib/thumb/v7e-m+fp/hard/libc.a(libc_a-memchr.o)
 .debug_line_str
                0x000001ca       0x9c /usr/lib/gcc/arm-none-eabi/13.2.1/thumb/v7e-m+fp/hard/libgcc.a(_arm_addsubdf3.o)
 .debug_line_str
                0x000001ca       0x9c /usr/lib/gcc/arm-none-eabi/13.2.1/thumb/v7e-m+fp/hard/libgcc.a(_arm_muldivdf3.o)
 .debug_line_str
                0x000001ca       0x9c /usr/lib/gcc/arm-none-eabi/13.2.1/thumb/v7e-m+fp/hard/libgcc.a(_arm_cmpdf2.o)
 .debug_line_str
                0x000001ca       0x9c /usr/lib/gcc/arm-none-eabi/13.2.1/thumb/v7e-m+fp/hard/libgcc.a(_arm_unorddf2.o)
 .debug_line_str
                0x000001ca       0x9c /usr/lib/gcc/arm-none-eabi/13.2.1/thumb/v7e-m+fp/hard/libgcc.a(_arm_fixdfsi.o)

.debug_info     0x00000000    0x1cbaf
 .debug_info    0x00000000       0x24 /usr/lib/gcc/arm-none-eabi/13.2.1/../../../arm-none-eabi/lib/thumb/v7e-m+fp/hard/crt0.o
 .debug_info    0x00000024       0x33 /usr/lib/gcc/arm-none-eabi/13.2.1/../../../arm-none-eabi/lib/thumb/v7e-m+fp/hard/libc.a(libc_a-strlen.o)
 .debug_info    0x00000057      0x135 /usr/lib/gcc/arm-none-eabi/13.2.1/../../../arm-none-eabi/lib/thumb/v7e-m+fp/hard/libc.a(libc_a-memset.o)
 .debug_info    0x0000018c      0x729 /usr/lib/gcc/arm-none-eabi/13.2.1/../../../arm-none-eabi/lib/thumb/v7e-m+fp/hard/libc.a(libc_a-impure.o)
 .debug_info    0x000008b5      0x7a7 /usr/lib/gcc/arm-none-eabi/13.2.1/../../../arm-none-eabi/lib/thumb/v7e-m+fp/hard/libc.a(libc_a-setbuf.o)
 .debug_info    0x0000105c      0x12b /usr/lib/gcc/arm-none-eabi/13.2.1/../../../arm-none-eabi/lib/thumb/v7e-m+fp/hard/libc.a(libc_a-memcmp.o)
 .debug_info    0x00001187       0x33 /usr/lib/gcc/arm-none-eabi/13.2.1/../../../arm-none-eabi/lib/thumb/v7e-m+fp/hard/libc.a(libc_a-memcpy.o)
 .debug_info    0x000011ba      0x10b /usr/lib/gcc/arm-none-eabi/13.2.1/../../../arm-none-eabi/lib/thumb/v7e-m+fp/hard/libc.a(libc_a-init.o)
 .debug_info    0x000012c5      0xea8 /usr/lib/gcc/arm-none-eabi/13.2.1/../../../arm-none-eabi/lib/thumb/v7e-m+fp/hard/libc.a(libc_a-findfp.o)
 .debug_info    0x0000216d      0x10a /usr/lib/gcc/arm-none-eabi/13.2.1/../../../arm-none-eabi/lib/thumb/v7e-m+fp/hard/libc.a(libc_a-exit.o)
 .debug_info    0x00002277       0xb9 /usr/lib/gcc/arm-none-eabi/13.2.1/../../../arm-none-eabi/lib/thumb/v7e-m+fp/hard/libc.a(libc_a-ctype_.o)
 .debug_info    0x00002330      0x11e /usr/lib/gcc/arm-none-eabi/13.2.1/../../../arm-none-eabi/lib/thumb/v7e-m+fp/hard/libc.a(libc_a-atexit.o)
 .debug_info    0x0000244e      0x855 /usr/lib/gcc/arm-none-eabi/13.2.1/../../../arm-none-eabi/lib/thumb/v7e-m+fp/hard/libc.a(libc_a-printf.o)
 .debug_info    0x00002ca3       0xf7 /usr/lib/gcc/arm-none-eabi/13.2.1/../../../arm-none-eabi/lib/thumb/v7e-m+fp/hard/libc.a(libc_a-fini.o)
 .debug_info    0x00002d9a      0x7e4 /usr/lib/gcc/arm-none-eabi/13.2.1/../../../arm-none-eabi/lib/thumb/v7e-m+fp/hard/libc.a(libc_a-fwalk.o)
 .debug_info    0x0000357e     0x1994 /usr/lib/gcc/arm-none-eabi/13.2.1/../../../arm-none-eabi/lib/thumb/v7e-m+fp/hard/libc.a(libc_a-vfprintf.o)
 .debug_info    0x00004f12       0x25 /usr/lib/gcc/arm-none-eabi/13.2.1/../../../arm-none-eabi/lib/thumb/v7e-m+fp/hard/libc.a(libc_a-memchr.o)
 .debug_info    0x00004f37      0xa4f /usr/lib/gcc/arm-none-eabi/13.2.1/../../../arm-none-eabi/lib/thumb/v7e-m+fp/hard/libc.a(libc_a-fflush.o)
 .debug_info    0x00005986      0x91a /usr/lib/gcc/arm-none-eabi/13.2.1/../../../arm-none-eabi/lib/thumb/v7e-m+fp/hard/libc.a(libc_a-setvbuf.o)
 .debug_info    0x000062a0      0xcd9 /usr/lib/gcc/arm-none-eabi/13.2.1/../../../arm-none-eabi/lib/thumb/v7e-m+fp/hard/libc.a(libc_a-mallocr.o)
 .debug_info    0x00006f79     0x18e7 /usr/lib/gcc/arm-none-eabi/13.2.1/../../../arm-none-eabi/lib/thumb/v7e-m+fp/hard/libc.a(libc_a-dtoa.o)
 .debug_info    0x00008860      0x7cf /usr/lib/gcc/arm-none-eabi/13.2.1/../../../arm-none-eabi/lib/thumb/v7e-m+fp/hard/libc.a(libc_a-wsetup.o)
 .debug_info    0x0000902f      0xb55 /usr/lib/gcc/arm-none-eabi/13.2.1/../../../arm-none-eabi/lib/thumb/v7e-m+fp/hard/libc.a(libc_a-freer.o)
 .debug_info    0x00009b84      0x8e6 /usr/lib/gcc/arm-none-eabi/13.2.1/../../../arm-none-eabi/lib/thumb/v7e-m+fp/hard/libc.a(libc_a-fclose.o)
 .debug_info    0x0000a46a      0x284 /usr/lib/gcc/arm-none-eabi/13.2.1/../../../arm-none-eabi/lib/thumb/v7e-m+fp/hard/libc.a(libc_a-__call_atexit.o)
 .debug_info    0x0000a6ee      0x7b4 /usr/lib/gcc/arm-none-eabi/13.2.1/../../../arm-none-eabi/lib/thumb/v7e-m+fp/hard/libc.a(libc_a-malloc.o)
 .debug_info    0x0000aea2       0xc1 /usr/lib/gcc/arm-none-eabi/13.2.1/../../../arm-none-eabi/lib/thumb/v7e-m+fp/hard/libc.a(libc_a-sysconf.o)
 .debug_info    0x0000af63      0xa9e /usr/lib/gcc/arm-none-eabi/13.2.1/../../../arm-none-eabi/lib/thumb/v7e-m+fp/hard/libc.a(libc_a-stdio.o)
 .debug_info    0x0000ba01      0x1fd /usr/lib/gcc/arm-none-eabi/13.2.1/../../../arm-none-eabi/lib/thumb/v7e-m+fp/hard/libc.a(libc_a-__atexit.o)
 .debug_info    0x0000bbfe      0x7d9 /usr/lib/gcc/arm-none-eabi/13.2.1/../../../arm-none-eabi/lib/thumb/v7e-m+fp/hard/libc.a(libc_a-writer.o)
 .debug_info    0x0000c3d7      0x73a /usr/lib/gcc/arm-none-eabi/13.2.1/../../../arm-none-eabi/lib/thumb/v7e-m+fp/hard/libc.a(libc_a-mlock.o)
 .debug_info    0x0000cb11      0x796 /usr/lib/gcc/arm-none-eabi/13.2.1/../../../arm-none-eabi/lib/thumb/v7e-m+fp/hard/libc.a(libc_a-sbrkr.o)
 .debug_info    0x0000d2a7      0x770 /usr/lib/gcc/arm-none-eabi/13.2.1/../../../arm-none-eabi/lib/thumb/v7e-m+fp/hard/libc.a(libc_a-closer.o)
 .debug_info    0x0000da17      0x7ff /usr/lib/gcc/arm-none-eabi/13.2.1/../../../arm-none-eabi/lib/thumb/v7e-m+fp/hard/libc.a(libc_a-sprint_r.o)
 .debug_info    0x0000e216      0x843 /usr/lib/gcc/arm-none-eabi/13.2.1/../../../arm-none-eabi/lib/thumb/v7e-m+fp/hard/libc.a(libc_a-assert.o)
 .debug_info    0x0000ea59     0x1e42 /usr/lib/gcc/arm-none-eabi/13.2.1/../../../arm-none-eabi/lib/thumb/v7e-m+fp/hard/libc.a(libc_a-mprec.o)
 .debug_info    0x0001089b      0xa2c /usr/lib/gcc/arm-none-eabi/13.2.1/../../../arm-none-eabi/lib/thumb/v7e-m+fp/hard/libc.a(libc_a-localeconv.o)
 .debug_info    0x000112c7      0xc08 /usr/lib/gcc/arm-none-eabi/13.2.1/../../../arm-none-eabi/lib/thumb/v7e-m+fp/hard/libc.a(libc_a-makebuf.o)
 .debug_info    0x00011ecf      0xbd7 /usr/lib/gcc/arm-none-eabi/13.2.1/../../../arm-none-eabi/lib/thumb/v7e-m+fp/hard/libc.a(libc_a-locale.o)
 .debug_info    0x00012aa6      0xace /usr/lib/gcc/arm-none-eabi/13.2.1/../../../arm-none-eabi/lib/thumb/v7e-m+fp/hard/libc.a(libc_a-mbtowc_r.o)
 .debug_info    0x00013574      0x70f /usr/lib/gcc/arm-none-eabi/13.2.1/../../../arm-none-eabi/lib/thumb/v7e-m+fp/hard/libc.a(libc_a-errno.o)
 .debug_info    0x00013c83       0xd8 /usr/lib/gcc/arm-none-eabi/13.2.1/../../../arm-none-eabi/lib/thumb/v7e-m+fp/hard/libc.a(libc_a-abort.o)
 .debug_info    0x00013d5b      0x8d9 /usr/lib/gcc/arm-none-eabi/13.2.1/../../../arm-none-eabi/lib/thumb/v7e-m+fp/hard/libc.a(libc_a-callocr.o)
 .debug_info    0x00014634      0x7d3 /usr/lib/gcc/arm-none-eabi/13.2.1/../../../arm-none-eabi/lib/thumb/v7e-m+fp/hard/libc.a(libc_a-readr.o)
 .debug_info    0x00014e07      0x872 /usr/lib/gcc/arm-none-eabi/13.2.1/../../../arm-none-eabi/lib/thumb/v7e-m+fp/hard/libc.a(libc_a-fiprintf.o)
 .debug_info    0x00015679      0xa8a /usr/lib/gcc/arm-none-eabi/13.2.1/../../../arm-none-eabi/lib/thumb/v7e-m+fp/hard/libc.a(libc_a-wctomb_r.o)
 .debug_info    0x00016103      0x7bc /usr/lib/gcc/arm-none-eabi/13.2.1/../../../arm-none-eabi/lib/thumb/v7e-m+fp/hard/libc.a(libc_a-lseekr.o)
 .debug_info    0x000168bf      0x831 /usr/lib/gcc/arm-none-eabi/13.2.1/../../../arm-none-eabi/lib/thumb/v7e-m+fp/hard/libc.a(libc_a-reent.o)
 .debug_info    0x000170f0      0x995 /usr/lib/gcc/arm-none-eabi/13.2.1/../../../arm-none-eabi/lib/thumb/v7e-m+fp/hard/libc.a(libc_a-fstatr.o)
 .debug_info    0x00017a85      0x770 /usr/lib/gcc/arm-none-eabi/13.2.1/../../../arm-none-eabi/lib/thumb/v7e-m+fp/hard/libc.a(libc_a-isattyr.o)
 .debug_info    0x000181f5      0xb0f /usr/lib/gcc/arm-none-eabi/13.2.1/../../../arm-none-eabi/lib/thumb/v7e-m+fp/hard/libc.a(libc_a-fvwrite.o)
 .debug_info    0x00018d04      0xc57 /usr/lib/gcc/arm-none-eabi/13.2.1/../../../arm-none-eabi/lib/thumb/v7e-m+fp/hard/libc.a(libc_a-signal.o)
 .debug_info    0x0001995b      0x7fd /usr/lib/gcc/arm-none-eabi/13.2.1/../../../arm-none-eabi/lib/thumb/v7e-m+fp/hard/libc.a(libc_a-signalr.o)
 .debug_info    0x0001a158      0x148 /usr/lib/gcc/arm-none-eabi/13.2.1/../../../arm-none-eabi/lib/thumb/v7e-m+fp/hard/libc.a(libc_a-memmove.o)
 .debug_info    0x0001a2a0     0x120d /usr/lib/gcc/arm-none-eabi/13.2.1/../../../arm-none-eabi/lib/thumb/v7e-m+fp/hard/libc.a(libc_a-vfiprintf.o)
 .debug_info    0x0001b4ad      0xbc9 /usr/lib/gcc/arm-none-eabi/13.2.1/../../../arm-none-eabi/lib/thumb/v7e-m+fp/hard/libc.a(libc_a-reallocr.o)
 .debug_info    0x0001c076       0xde /usr/lib/gcc/arm-none-eabi/13.2.1/../../../arm-none-eabi/lib/thumb/v7e-m+fp/hard/libnosys.a(close.o)
 .debug_info    0x0001c154      0x2f7 /usr/lib/gcc/arm-none-eabi/13.2.1/../../../arm-none-eabi/lib/thumb/v7e-m+fp/hard/libnosys.a(fstat.o)
 .debug_info    0x0001c44b       0xc9 /usr/lib/gcc/arm-none-eabi/13.2.1/../../../arm-none-eabi/lib/thumb/v7e-m+fp/hard/libnosys.a(getpid.o)
 .debug_info    0x0001c514       0xde /usr/lib/gcc/arm-none-eabi/13.2.1/../../../arm-none-eabi/lib/thumb/v7e-m+fp/hard/libnosys.a(isatty.o)
 .debug_info    0x0001c5f2       0xec /usr/lib/gcc/arm-none-eabi/13.2.1/../../../arm-none-eabi/lib/thumb/v7e-m+fp/hard/libnosys.a(kill.o)
 .debug_info    0x0001c6de      0x100 /usr/lib/gcc/arm-none-eabi/13.2.1/../../../arm-none-eabi/lib/thumb/v7e-m+fp/hard/libnosys.a(lseek.o)
 .debug_info    0x0001c7de       0xac /usr/lib/gcc/arm-none-eabi/13.2.1/../../../arm-none-eabi/lib/thumb/v7e-m+fp/hard/libnosys.a(sbrk.o)
 .debug_info    0x0001c88a       0xa4 /usr/lib/gcc/arm-none-eabi/13.2.1/../../../arm-none-eabi/lib/thumb/v7e-m+fp/hard/libnosys.a(_exit.o)
 .debug_info    0x0001c92e       0xd3 /usr/lib/gcc/arm-none-eabi/13.2.1/thumb/v7e-m+fp/hard/libgcc.a(_arm_addsubdf3.o)
 .debug_info    0x0001ca01       0x57 /usr/lib/gcc/arm-none-eabi/13.2.1/thumb/v7e-m+fp/hard/libgcc.a(_arm_muldivdf3.o)
 .debug_info    0x0001ca58       0xdf /usr/lib/gcc/arm-none-eabi/13.2.1/thumb/v7e-m+fp/hard/libgcc.a(_arm_cmpdf2.o)
 .debug_info    0x0001cb37       0x3c /usr/lib/gcc/arm-none-eabi/13.2.1/thumb/v7e-m+fp/hard/libgcc.a(_arm_unorddf2.o)
 .debug_info    0x0001cb73       0x3c /usr/lib/gcc/arm-none-eabi/13.2.1/thumb/v7e-m+fp/hard/libgcc.a(_arm_fixdfsi.o)

.debug_abbrev   0x00000000     0x7460
 .debug_abbrev  0x00000000       0x14 /usr/lib/gcc/arm-none-eabi/13.2.1/../../../arm-none-eabi/lib/thumb/v7e-m+fp/hard/crt0.o
 .debug_abbrev  0x00000014       0x28 /usr/lib/gcc/arm-none-eabi/13.2.1/../../../arm-none-eabi/lib/thumb/v7e-m+fp/hard/libc.a(libc_a-strlen.o)
 .debug_abbrev  0x0000003c       0xb7 /usr/lib/gcc/arm-none-eabi/13.2.1/../../../arm-none-eabi/lib/thumb/v7e-m+fp/hard/libc.a(libc_a-memset.o)
 .debug_abbrev  0x000000f3      0x185 /usr/lib/gcc/arm-none-eabi/13.2.1/../../../arm-none-eabi/lib/thumb/v7e-m+fp/hard/libc.a(libc_a-impure.o)
 .debug_abbrev  0x00000278      0x1cd /usr/lib/gcc/arm-none-eabi/13.2.1/../../../arm-none-eabi/lib/thumb/v7e-m+fp/hard/libc.a(libc_a-setbuf.o)
 .debug_abbrev  0x00000445       0x90 /usr/lib/gcc/arm-none-eabi/13.2.1/../../../arm-none-eabi/lib/thumb/v7e-m+fp/hard/libc.a(libc_a-memcmp.o)
 .debug_abbrev  0x000004d5       0x28 /usr/lib/gcc/arm-none-eabi/13.2.1/../../../arm-none-eabi/lib/thumb/v7e-m+fp/hard/libc.a(libc_a-memcpy.o)
 .debug_abbrev  0x000004fd       0xc9 /usr/lib/gcc/arm-none-eabi/13.2.1/../../../arm-none-eabi/lib/thumb/v7e-m+fp/hard/libc.a(libc_a-init.o)
 .debug_abbrev  0x000005c6      0x446 /usr/lib/gcc/arm-none-eabi/13.2.1/../../../arm-none-eabi/lib/thumb/v7e-m+fp/hard/libc.a(libc_a-findfp.o)
 .debug_abbrev  0x00000a0c       0xd5 /usr/lib/gcc/arm-none-eabi/13.2.1/../../../arm-none-eabi/lib/thumb/v7e-m+fp/hard/libc.a(libc_a-exit.o)
 .debug_abbrev  0x00000ae1       0x62 /usr/lib/gcc/arm-none-eabi/13.2.1/../../../arm-none-eabi/lib/thumb/v7e-m+fp/hard/libc.a(libc_a-ctype_.o)
 .debug_abbrev  0x00000b43       0xc1 /usr/lib/gcc/arm-none-eabi/13.2.1/../../../arm-none-eabi/lib/thumb/v7e-m+fp/hard/libc.a(libc_a-atexit.o)
 .debug_abbrev  0x00000c04      0x256 /usr/lib/gcc/arm-none-eabi/13.2.1/../../../arm-none-eabi/lib/thumb/v7e-m+fp/hard/libc.a(libc_a-printf.o)
 .debug_abbrev  0x00000e5a       0xcc /usr/lib/gcc/arm-none-eabi/13.2.1/../../../arm-none-eabi/lib/thumb/v7e-m+fp/hard/libc.a(libc_a-fini.o)
 .debug_abbrev  0x00000f26      0x1d9 /usr/lib/gcc/arm-none-eabi/13.2.1/../../../arm-none-eabi/lib/thumb/v7e-m+fp/hard/libc.a(libc_a-fwalk.o)
 .debug_abbrev  0x000010ff      0x4e2 /usr/lib/gcc/arm-none-eabi/13.2.1/../../../arm-none-eabi/lib/thumb/v7e-m+fp/hard/libc.a(libc_a-vfprintf.o)
 .debug_abbrev  0x000015e1       0x14 /usr/lib/gcc/arm-none-eabi/13.2.1/../../../arm-none-eabi/lib/thumb/v7e-m+fp/hard/libc.a(libc_a-memchr.o)
 .debug_abbrev  0x000015f5      0x322 /usr/lib/gcc/arm-none-eabi/13.2.1/../../../arm-none-eabi/lib/thumb/v7e-m+fp/hard/libc.a(libc_a-fflush.o)
 .debug_abbrev  0x00001917      0x28c /usr/lib/gcc/arm-none-eabi/13.2.1/../../../arm-none-eabi/lib/thumb/v7e-m+fp/hard/libc.a(libc_a-setvbuf.o)
 .debug_abbrev  0x00001ba3      0x2d7 /usr/lib/gcc/arm-none-eabi/13.2.1/../../../arm-none-eabi/lib/thumb/v7e-m+fp/hard/libc.a(libc_a-mallocr.o)
 .debug_abbrev  0x00001e7a      0x364 /usr/lib/gcc/arm-none-eabi/13.2.1/../../../arm-none-eabi/lib/thumb/v7e-m+fp/hard/libc.a(libc_a-dtoa.o)
 .debug_abbrev  0x000021de      0x21e /usr/lib/gcc/arm-none-eabi/13.2.1/../../../arm-none-eabi/lib/thumb/v7e-m+fp/hard/libc.a(libc_a-wsetup.o)
 .debug_abbrev  0x000023fc      0x27f /usr/lib/gcc/arm-none-eabi/13.2.1/../../../arm-none-eabi/lib/thumb/v7e-m+fp/hard/libc.a(libc_a-freer.o)
 .debug_abbrev  0x0000267b      0x2ed /usr/lib/gcc/arm-none-eabi/13.2.1/../../../arm-none-eabi/lib/thumb/v7e-m+fp/hard/libc.a(libc_a-fclose.o)
 .debug_abbrev  0x00002968      0x1dd /usr/lib/gcc/arm-none-eabi/13.2.1/../../../arm-none-eabi/lib/thumb/v7e-m+fp/hard/libc.a(libc_a-__call_atexit.o)
 .debug_abbrev  0x00002b45      0x20b /usr/lib/gcc/arm-none-eabi/13.2.1/../../../arm-none-eabi/lib/thumb/v7e-m+fp/hard/libc.a(libc_a-malloc.o)
 .debug_abbrev  0x00002d50       0x80 /usr/lib/gcc/arm-none-eabi/13.2.1/../../../arm-none-eabi/lib/thumb/v7e-m+fp/hard/libc.a(libc_a-sysconf.o)
 .debug_abbrev  0x00002dd0      0x260 /usr/lib/gcc/arm-none-eabi/13.2.1/../../../arm-none-eabi/lib/thumb/v7e-m+fp/hard/libc.a(libc_a-stdio.o)
 .debug_abbrev  0x00003030      0x157 /usr/lib/gcc/arm-none-eabi/13.2.1/../../../arm-none-eabi/lib/thumb/v7e-m+fp/hard/libc.a(libc_a-__atexit.o)
 .debug_abbrev  0x00003187      0x1f1 /usr/lib/gcc/arm-none-eabi/13.2.1/../../../arm-none-eabi/lib/thumb/v7e-m+fp/hard/libc.a(libc_a-writer.o)
 .debug_abbrev  0x00003378      0x1ce /usr/lib/gcc/arm-none-eabi/13.2.1/../../../arm-none-eabi/lib/thumb/v7e-m+fp/hard/libc.a(libc_a-mlock.o)
 .debug_abbrev  0x00003546      0x216 /usr/lib/gcc/arm-none-eabi/13.2.1/../../../arm-none-eabi/lib/thumb/v7e-m+fp/hard/libc.a(libc_a-sbrkr.o)
 .debug_abbrev  0x0000375c      0x1ec /usr/lib/gcc/arm-none-eabi/13.2.1/../../../arm-none-eabi/lib/thumb/v7e-m+fp/hard/libc.a(libc_a-closer.o)
 .debug_abbrev  0x00003948      0x1d4 /usr/lib/gcc/arm-none-eabi/13.2.1/../../../arm-none-eabi/lib/thumb/v7e-m+fp/hard/libc.a(libc_a-sprint_r.o)
 .debug_abbrev  0x00003b1c      0x226 /usr/lib/gcc/arm-none-eabi/13.2.1/../../../arm-none-eabi/lib/thumb/v7e-m+fp/hard/libc.a(libc_a-assert.o)
 .debug_abbrev  0x00003d42      0x502 /usr/lib/gcc/arm-none-eabi/13.2.1/../../../arm-none-eabi/lib/thumb/v7e-m+fp/hard/libc.a(libc_a-mprec.o)
 .debug_abbrev  0x00004244      0x26a /usr/lib/gcc/arm-none-eabi/13.2.1/../../../arm-none-eabi/lib/thumb/v7e-m+fp/hard/libc.a(libc_a-localeconv.o)
 .debug_abbrev  0x000044ae      0x2c1 /usr/lib/gcc/arm-none-eabi/13.2.1/../../../arm-none-eabi/lib/thumb/v7e-m+fp/hard/libc.a(libc_a-makebuf.o)
 .debug_abbrev  0x0000476f      0x2d9 /usr/lib/gcc/arm-none-eabi/13.2.1/../../../arm-none-eabi/lib/thumb/v7e-m+fp/hard/libc.a(libc_a-locale.o)
 .debug_abbrev  0x00004a48      0x244 /usr/lib/gcc/arm-none-eabi/13.2.1/../../../arm-none-eabi/lib/thumb/v7e-m+fp/hard/libc.a(libc_a-mbtowc_r.o)
 .debug_abbrev  0x00004c8c      0x19a /usr/lib/gcc/arm-none-eabi/13.2.1/../../../arm-none-eabi/lib/thumb/v7e-m+fp/hard/libc.a(libc_a-errno.o)
 .debug_abbrev  0x00004e26       0x99 /usr/lib/gcc/arm-none-eabi/13.2.1/../../../arm-none-eabi/lib/thumb/v7e-m+fp/hard/libc.a(libc_a-abort.o)
 .debug_abbrev  0x00004ebf      0x25b /usr/lib/gcc/arm-none-eabi/13.2.1/../../../arm-none-eabi/lib/thumb/v7e-m+fp/hard/libc.a(libc_a-callocr.o)
 .debug_abbrev  0x0000511a      0x1ec /usr/lib/gcc/arm-none-eabi/13.2.1/../../../arm-none-eabi/lib/thumb/v7e-m+fp/hard/libc.a(libc_a-readr.o)
 .debug_abbrev  0x00005306      0x252 /usr/lib/gcc/arm-none-eabi/13.2.1/../../../arm-none-eabi/lib/thumb/v7e-m+fp/hard/libc.a(libc_a-fiprintf.o)
 .debug_abbrev  0x00005558      0x24e /usr/lib/gcc/arm-none-eabi/13.2.1/../../../arm-none-eabi/lib/thumb/v7e-m+fp/hard/libc.a(libc_a-wctomb_r.o)
 .debug_abbrev  0x000057a6      0x200 /usr/lib/gcc/arm-none-eabi/13.2.1/../../../arm-none-eabi/lib/thumb/v7e-m+fp/hard/libc.a(libc_a-lseekr.o)
 .debug_abbrev  0x000059a6      0x22a /usr/lib/gcc/arm-none-eabi/13.2.1/../../../arm-none-eabi/lib/thumb/v7e-m+fp/hard/libc.a(libc_a-reent.o)
 .debug_abbrev  0x00005bd0      0x1ff /usr/lib/gcc/arm-none-eabi/13.2.1/../../../arm-none-eabi/lib/thumb/v7e-m+fp/hard/libc.a(libc_a-fstatr.o)
 .debug_abbrev  0x00005dcf      0x1ec /usr/lib/gcc/arm-none-eabi/13.2.1/../../../arm-none-eabi/lib/thumb/v7e-m+fp/hard/libc.a(libc_a-isattyr.o)
 .debug_abbrev  0x00005fbb      0x257 /usr/lib/gcc/arm-none-eabi/13.2.1/../../../arm-none-eabi/lib/thumb/v7e-m+fp/hard/libc.a(libc_a-fvwrite.o)
 .debug_abbrev  0x00006212      0x313 /usr/lib/gcc/arm-none-eabi/13.2.1/../../../arm-none-eabi/lib/thumb/v7e-m+fp/hard/libc.a(libc_a-signal.o)
 .debug_abbrev  0x00006525      0x239 /usr/lib/gcc/arm-none-eabi/13.2.1/../../../arm-none-eabi/lib/thumb/v7e-m+fp/hard/libc.a(libc_a-signalr.o)
 .debug_abbrev  0x0000675e       0xc3 /usr/lib/gcc/arm-none-eabi/13.2.1/../../../arm-none-eabi/lib/thumb/v7e-m+fp/hard/libc.a(libc_a-memmove.o)
 .debug_abbrev  0x00006821      0x3d6 /usr/lib/gcc/arm-none-eabi/13.2.1/../../../arm-none-eabi/lib/thumb/v7e-m+fp/hard/libc.a(libc_a-vfiprintf.o)
 .debug_abbrev  0x00006bf7      0x2a3 /usr/lib/gcc/arm-none-eabi/13.2.1/../../../arm-none-eabi/lib/thumb/v7e-m+fp/hard/libc.a(libc_a-reallocr.o)
 .debug_abbrev  0x00006e9a       0x96 /usr/lib/gcc/arm-none-eabi/13.2.1/../../../arm-none-eabi/lib/thumb/v7e-m+fp/hard/libnosys.a(close.o)
 .debug_abbrev  0x00006f30       0xe4 /usr/lib/gcc/arm-none-eabi/13.2.1/../../../arm-none-eabi/lib/thumb/v7e-m+fp/hard/libnosys.a(fstat.o)
 .debug_abbrev  0x00007014       0x82 /usr/lib/gcc/arm-none-eabi/13.2.1/../../../arm-none-eabi/lib/thumb/v7e-m+fp/hard/libnosys.a(getpid.o)
 .debug_abbrev  0x00007096       0x96 /usr/lib/gcc/arm-none-eabi/13.2.1/../../../arm-none-eabi/lib/thumb/v7e-m+fp/hard/libnosys.a(isatty.o)
 .debug_abbrev  0x0000712c       0xa7 /usr/lib/gcc/arm-none-eabi/13.2.1/../../../arm-none-eabi/lib/thumb/v7e-m+fp/hard/libnosys.a(kill.o)
 .debug_abbrev  0x000071d3       0xbb /usr/lib/gcc/arm-none-eabi/13.2.1/../../../arm-none-eabi/lib/thumb/v7e-m+fp/hard/libnosys.a(lseek.o)
 .debug_abbrev  0x0000728e       0xa1 /usr/lib/gcc/arm-none-eabi/13.2.1/../../../arm-none-eabi/lib/thumb/v7e-m+fp/hard/libnosys.a(sbrk.o)
 .debug_abbrev  0x0000732f       0x69 /usr/lib/gcc/arm-none-eabi/13.2.1/../../../arm-none-eabi/lib/thumb/v7e-m+fp/hard/libnosys.a(_exit.o)
 .debug_abbrev  0x00007398       0x28 /usr/lib/gcc/arm-none-eabi/13.2.1/thumb/v7e-m+fp/hard/libgcc.a(_arm_addsubdf3.o)
 .debug_abbrev  0x000073c0       0x28 /usr/lib/gcc/arm-none-eabi/13.2.1/thumb/v7e-m+fp/hard/libgcc.a(_arm_muldivdf3.o)
 .debug_abbrev  0x000073e8       0x28 /usr/lib/gcc/arm-none-eabi/13.2.1/thumb/v7e-m+fp/hard/libgcc.a(_arm_cmpdf2.o)
 .debug_abbrev  0x00007410       0x28 /usr/lib/gcc/arm-none-eabi/13.2.1/thumb/v7e-m+fp/hard/libgcc.a(_arm_unorddf2.o)
 .debug_abbrev  0x00007438       0x28 /usr/lib/gcc/arm-none-eabi/13.2.1/thumb/v7e-m+fp/hard/libgcc.a(_arm_fixdfsi.o)

.debug_aranges  0x00000000      0x898
 .debug_aranges
                0x00000000       0x20 /usr/lib/gcc/arm-none-eabi/13.2.1/../../../arm-none-eabi/lib/thumb/v7e-m+fp/hard/crt0.o
 .debug_aranges
                0x00000020       0x20 /usr/lib/gcc/arm-none-eabi/13.2.1/../../../arm-none-eabi/lib/thumb/v7e-m+fp/hard/libc.a(libc_a-strlen.o)
 .debug_aranges
                0x00000040       0x20 /usr/lib/gcc/arm-none-eabi/13.2.1/../../../arm-none-eabi/lib/thumb/v7e-m+fp/hard/libc.a(libc_a-memset.o)
 .debug_aranges
                0x00000060       0x18 /usr/lib/gcc/arm-none-eabi/13.2.1/../../../arm-none-eabi/lib/thumb/v7e-m+fp/hard/libc.a(libc_a-impure.o)
 .debug_aranges
                0x00000078       0x20 /usr/lib/gcc/arm-none-eabi/13.2.1/../../../arm-none-eabi/lib/thumb/v7e-m+fp/hard/libc.a(libc_a-setbuf.o)
 .debug_aranges
                0x00000098       0x20 /usr/lib/gcc/arm-none-eabi/13.2.1/../../../arm-none-eabi/lib/thumb/v7e-m+fp/hard/libc.a(libc_a-memcmp.o)
 .debug_aranges
                0x000000b8       0x20 /usr/lib/gcc/arm-none-eabi/13.2.1/../../../arm-none-eabi/lib/thumb/v7e-m+fp/hard/libc.a(libc_a-memcpy.o)
 .debug_aranges
                0x000000d8       0x20 /usr/lib/gcc/arm-none-eabi/13.2.1/../../../arm-none-eabi/lib/thumb/v7e-m+fp/hard/libc.a(libc_a-init.o)
 .debug_aranges
                0x000000f8       0x20 /usr/lib/gcc/arm-none-eabi/13.2.1/../../../arm-none-eabi/lib/thumb/v7e-m+fp/hard/libc.a(libc_a-findfp.o)
 .debug_aranges
                0x00000118       0x20 /usr/lib/gcc/arm-none-eabi/13.2.1/../../../arm-none-eabi/lib/thumb/v7e-m+fp/hard/libc.a(libc_a-exit.o)
 .debug_aranges
                0x00000138       0x18 /usr/lib/gcc/arm-none-eabi/13.2.1/../../../arm-none-eabi/lib/thumb/v7e-m+fp/hard/libc.a(libc_a-ctype_.o)
 .debug_aranges
                0x00000150       0x20 /usr/lib/gcc/arm-none-eabi/13.2.1/../../../arm-none-eabi/lib/thumb/v7e-m+fp/hard/libc.a(libc_a-atexit.o)
 .debug_aranges
                0x00000170       0x20 /usr/lib/gcc/arm-none-eabi/13.2.1/../../../arm-none-eabi/lib/thumb/v7e-m+fp/hard/libc.a(libc_a-printf.o)
 .debug_aranges
                0x00000190       0x20 /usr/lib/gcc/arm-none-eabi/13.2.1/../../../arm-none-eabi/lib/thumb/v7e-m+fp/hard/libc.a(libc_a-fini.o)
 .debug_aranges
                0x000001b0       0x20 /usr/lib/gcc/arm-none-eabi/13.2.1/../../../arm-none-eabi/lib/thumb/v7e-m+fp/hard/libc.a(libc_a-fwalk.o)
 .debug_aranges
                0x000001d0       0x20 /usr/lib/gcc/arm-none-eabi/13.2.1/../../../arm-none-eabi/lib/thumb/v7e-m+fp/hard/libc.a(libc_a-vfprintf.o)
 .debug_aranges
                0x000001f0       0x20 /usr/lib/gcc/arm-none-eabi/13.2.1/../../../arm-none-eabi/lib/thumb/v7e-m+fp/hard/libc.a(libc_a-memchr.o)
 .debug_aranges
                0x00000210       0x20 /usr/lib/gcc/arm-none-eabi/13.2.1/../../../arm-none-eabi/lib/thumb/v7e-m+fp/hard/libc.a(libc_a-fflush.o)
 .debug_aranges
                0x00000230       0x20 /usr/lib/gcc/arm-none-eabi/13.2.1/../../../arm-none-eabi/lib/thumb/v7e-m+fp/hard/libc.a(libc_a-setvbuf.o)
 .debug_aranges
                0x00000250       0x20 /usr/lib/gcc/arm-none-eabi/13.2.1/../../../arm-none-eabi/lib/thumb/v7e-m+fp/hard/libc.a(libc_a-mallocr.o)
 .debug_aranges
                0x00000270       0x20 /usr/lib/gcc/arm-none-eabi/13.2.1/../../../arm-none-eabi/lib/thumb/v7e-m+fp/hard/libc.a(libc_a-dtoa.o)
 .debug_aranges
                0x00000290       0x20 /usr/lib/gcc/arm-none-eabi/13.2.1/../../../arm-none-eabi/lib/thumb/v7e-m+fp/hard/libc.a(libc_a-wsetup.o)
 .debug_aranges
                0x000002b0       0x20 /usr/lib/gcc/arm-none-eabi/13.2.1/../../../arm-none-eabi/lib/thumb/v7e-m+fp/hard/libc.a(libc_a-freer.o)
 .debug_aranges
                0x000002d0       0x20 /usr/lib/gcc/arm-none-eabi/13.2.1/../../../arm-none-eabi/lib/thumb/v7e-m+fp/hard/libc.a(libc_a-fclose.o)
 .debug_aranges
                0x000002f0       0x28 /usr/lib/gcc/arm-none-eabi/13.2.1/../../../arm-none-eabi/lib/thumb/v7e-m+fp/hard/libc.a(libc_a-__call_atexit.o)
 .debug_aranges
                0x00000318       0x20 /usr/lib/gcc/arm-none-eabi/13.2.1/../../../arm-none-eabi/lib/thumb/v7e-m+fp/hard/libc.a(libc_a-malloc.o)
 .debug_aranges
                0x00000338       0x20 /usr/lib/gcc/arm-none-eabi/13.2.1/../../../arm-none-eabi/lib/thumb/v7e-m+fp/hard/libc.a(libc_a-sysconf.o)
 .debug_aranges
                0x00000358       0x20 /usr/lib/gcc/arm-none-eabi/13.2.1/../../../arm-none-eabi/lib/thumb/v7e-m+fp/hard/libc.a(libc_a-stdio.o)
 .debug_aranges
                0x00000378       0x20 /usr/lib/gcc/arm-none-eabi/13.2.1/../../../arm-none-eabi/lib/thumb/v7e-m+fp/hard/libc.a(libc_a-__atexit.o)
 .debug_aranges
                0x00000398       0x20 /usr/lib/gcc/arm-none-eabi/13.2.1/../../../arm-none-eabi/lib/thumb/v7e-m+fp/hard/libc.a(libc_a-writer.o)
 .debug_aranges
                0x000003b8       0x20 /usr/lib/gcc/arm-none-eabi/13.2.1/../../../arm-none-eabi/lib/thumb/v7e-m+fp/hard/libc.a(libc_a-mlock.o)
 .debug_aranges
                0x000003d8       0x20 /usr/lib/gcc/arm-none-eabi/13.2.1/../../../arm-none-eabi/lib/thumb/v7e-m+fp/hard/libc.a(libc_a-sbrkr.o)
 .debug_aranges
                0x000003f8       0x20 /usr/lib/gcc/arm-none-eabi/13.2.1/../../../arm-none-eabi/lib/thumb/v7e-m+fp/hard/libc.a(libc_a-closer.o)
 .debug_aranges
                0x00000418       0x20 /usr/lib/gcc/arm-none-eabi/13.2.1/../../../arm-none-eabi/lib/thumb/v7e-m+fp/hard/libc.a(libc_a-sprint_r.o)
 .debug_aranges
                0x00000438       0x20 /usr/lib/gcc/arm-none-eabi/13.2.1/../../../arm-none-eabi/lib/thumb/v7e-m+fp/hard/libc.a(libc_a-assert.o)
 .debug_aranges
                0x00000458       0x20 /usr/lib/gcc/arm-none-eabi/13.2.1/../../../arm-none-eabi/lib/thumb/v7e-m+fp/hard/libc.a(libc_a-mprec.o)
 .debug_aranges
                0x00000478       0x20 /usr/lib/gcc/arm-none-eabi/13.2.1/../../../arm-none-eabi/lib/thumb/v7e-m+fp/hard/libc.a(libc_a-localeconv.o)
 .debug_aranges
                0x00000498       0x20 /usr/lib/gcc/arm-none-eabi/13.2.1/../../../arm-none-eabi/lib/thumb/v7e-m+fp/hard/libc.a(libc_a-makebuf.o)
 .debug_aranges
                0x000004b8       0x20 /usr/lib/gcc/arm-none-eabi/13.2.1/../../../arm-none-eabi/lib/thumb/v7e-m+fp/hard/libc.a(libc_a-locale.o)
 .debug_aranges
                0x000004d8       0x20 /usr/lib/gcc/arm-none-eabi/13.2.1/../../../arm-none-eabi/lib/thumb/v7e-m+fp/hard/libc.a(libc_a-mbtowc_r.o)
 .debug_aranges
                0x000004f8       0x20 /usr/lib/gcc/arm-none-eabi/13.2.1/../../../arm-none-eabi/lib/thumb/v7e-m+fp/hard/libc.a(libc_a-errno.o)
 .debug_aranges
                0x00000518       0x20 /usr/lib/gcc/arm-none-eabi/13.2.1/../../../arm-none-eabi/lib/thumb/v7e-m+fp/hard/libc.a(libc_a-abort.o)
 .debug_aranges
                0x00000538       0x20 /usr/lib/gcc/arm-none-eabi/13.2.1/../../../arm-none-eabi/lib/thumb/v7e-m+fp/hard/libc.a(libc_a-callocr.o)
 .debug_aranges
                0x00000558       0x20 /usr/lib/gcc/arm-none-eabi/13.2.1/../../../arm-none-eabi/lib/thumb/v7e-m+fp/hard/libc.a(libc_a-readr.o)
 .debug_aranges
                0x00000578       0x20 /usr/lib/gcc/arm-none-eabi/13.2.1/../../../arm-none-eabi/lib/thumb/v7e-m+fp/hard/libc.a(libc_a-fiprintf.o)
 .debug_aranges
                0x00000598       0x20 /usr/lib/gcc/arm-none-eabi/13.2.1/../../../arm-none-eabi/lib/thumb/v7e-m+fp/hard/libc.a(libc_a-wctomb_r.o)
 .debug_aranges
                0x000005b8       0x20 /usr/lib/gcc/arm-none-eabi/13.2.1/../../../arm-none-eabi/lib/thumb/v7e-m+fp/hard/libc.a(libc_a-lseekr.o)
 .debug_aranges
                0x000005d8       0x20 /usr/lib/gcc/arm-none-eabi/13.2.1/../../../arm-none-eabi/lib/thumb/v7e-m+fp/hard/libc.a(libc_a-reent.o)
 .debug_aranges
                0x000005f8       0x20 /usr/lib/gcc/arm-none-eabi/13.2.1/../../../arm-none-eabi/lib/thumb/v7e-m+fp/hard/libc.a(libc_a-fstatr.o)
 .debug_aranges
                0x00000618       0x20 /usr/lib/gcc/arm-none-eabi/13.2.1/../../../arm-none-eabi/lib/thumb/v7e-m+fp/hard/libc.a(libc_a-isattyr.o)
 .debug_aranges
                0x00000638       0x20 /usr/lib/gcc/arm-none-eabi/13.2.1/../../../arm-none-eabi/lib/thumb/v7e-m+fp/hard/libc.a(libc_a-fvwrite.o)
 .debug_aranges
                0x00000658       0x20 /usr/lib/gcc/arm-none-eabi/13.2.1/../../../arm-none-eabi/lib/thumb/v7e-m+fp/hard/libc.a(libc_a-signal.o)
 .debug_aranges
                0x00000678       0x20 /usr/lib/gcc/arm-none-eabi/13.2.1/../../../arm-none-eabi/lib/thumb/v7e-m+fp/hard/libc.a(libc_a-signalr.o)
 .debug_aranges
                0x00000698       0x20 /usr/lib/gcc/arm-none-eabi/13.2.1/../../../arm-none-eabi/lib/thumb/v7e-m+fp/hard/libc.a(libc_a-memmove.o)
 .debug_aranges
                0x000006b8       0x20 /usr/lib/gcc/arm-none-eabi/13.2.1/../../../arm-none-eabi/lib/thumb/v7e-m+fp/hard/libc.a(libc_a-vfiprintf.o)
 .debug_aranges
                0x000006d8       0x20 /usr/lib/gcc/arm-none-eabi/13.2.1/../../../arm-none-eabi/lib/thumb/v7e-m+fp/hard/libc.a(libc_a-reallocr.o)
 .debug_aranges
                0x000006f8       0x20 /usr/lib/gcc/arm-none-eabi/13.2.1/../../../arm-none-eabi/lib/thumb/v7e-m+fp/hard/libnosys.a(close.o)
 .debug_aranges
                0x00000718       0x20 /usr/lib/gcc/arm-none-eabi/13.2.1/../../../arm-none-eabi/lib/thumb/v7e-m+fp/hard/libnosys.a(fstat.o)
 .debug_aranges
                0x00000738       0x20 /usr/lib/gcc/arm-none-eabi/13.2.1/../../../arm-none-eabi/lib/thumb/v7e-m+fp/hard/libnosys.a(getpid.o)
 .debug_aranges
                0x00000758       0x20 /usr/lib/gcc/arm-none-eabi/13.2.1/../../../arm-none-eabi/lib/thumb/v7e-m+fp/hard/libnosys.a(isatty.o)
 .debug_aranges
                0x00000778       0x20 /usr/lib/gcc/arm-none-eabi/13.2.1/../../../arm-none-eabi/lib/thumb/v7e-m+fp/hard/libnosys.a(kill.o)
 .debug_aranges
                0x00000798       0x20 /usr/lib/gcc/arm-none-eabi/13.2.1/../../../arm-none-eabi/lib/thumb/v7e-m+fp/hard/libnosys.a(lseek.o)
 .debug_aranges
                0x000007b8       0x20 /usr/lib/gcc/arm-none-eabi/13.2.1/../../../arm-none-eabi/lib/thumb/v7e-m+fp/hard/libnosys.a(sbrk.o)
 .debug_aranges
                0x000007d8       0x20 /usr/lib/gcc/arm-none-eabi/13.2.1/../../../arm-none-eabi/lib/thumb/v7e-m+fp/hard/libnosys.a(_exit.o)
 .debug_aranges
                0x000007f8       0x20 /usr/lib/gcc/arm-none-eabi/13.2.1/thumb/v7e-m+fp/hard/libgcc.a(_arm_addsubdf3.o)
 .debug_aranges
                0x00000818       0x20 /usr/lib/gcc/arm-none-eabi/13.2.1/thumb/v7e-m+fp/hard/libgcc.a(_arm_muldivdf3.o)
 .debug_aranges
                0x00000838       0x20 /usr/lib/gcc/arm-none-eabi/13.2.1/thumb/v7e-m+fp/hard/libgcc.a(_arm_cmpdf2.o)
 .debug_aranges
                0x00000858       0x20 /usr/lib/gcc/arm-none-eabi/13.2.1/thumb/v7e-m+fp/hard/libgcc.a(_arm_unorddf2.o)
 .debug_aranges
                0x00000878       0x20 /usr/lib/gcc/arm-none-eabi/13.2.1/thumb/v7e-m+fp/hard/libgcc.a(_arm_fixdfsi.o)

.debug_str      0x00000000     0x225b
 .debug_str     0x00000000     0x225b /usr/lib/gcc/arm-none-eabi/13.2.1/../../../arm-none-eabi/lib/thumb/v7e-m+fp/hard/crt0.o
                                 0x8e (size before relaxing)
 .debug_str     0x0000225b       0xa6 /usr/lib/gcc/arm-none-eabi/13.2.1/../../../arm-none-eabi/lib/thumb/v7e-m+fp/hard/libc.a(libc_a-strlen.o)
 .debug_str     0x0000225b      0x1a8 /usr/lib/gcc/arm-none-eabi/13.2.1/../../../arm-none-eabi/lib/thumb/v7e-m+fp/hard/libc.a(libc_a-memset.o)
 .debug_str     0x0000225b      0x4ac /usr/lib/gcc/arm-none-eabi/13.2.1/../../../arm-none-eabi/lib/thumb/v7e-m+fp/hard/libc.a(libc_a-impure.o)
 .debug_str     0x0000225b      0x4a9 /usr/lib/gcc/arm-none-eabi/13.2.1/../../../arm-none-eabi/lib/thumb/v7e-m+fp/hard/libc.a(libc_a-setbuf.o)
 .debug_str     0x0000225b      0x194 /usr/lib/gcc/arm-none-eabi/13.2.1/../../../arm-none-eabi/lib/thumb/v7e-m+fp/hard/libc.a(libc_a-memcmp.o)
 .debug_str     0x0000225b       0xa7 /usr/lib/gcc/arm-none-eabi/13.2.1/../../../arm-none-eabi/lib/thumb/v7e-m+fp/hard/libc.a(libc_a-memcpy.o)
 .debug_str     0x0000225b      0x1f5 /usr/lib/gcc/arm-none-eabi/13.2.1/../../../arm-none-eabi/lib/thumb/v7e-m+fp/hard/libc.a(libc_a-init.o)
 .debug_str     0x0000225b      0x6af /usr/lib/gcc/arm-none-eabi/13.2.1/../../../arm-none-eabi/lib/thumb/v7e-m+fp/hard/libc.a(libc_a-findfp.o)
 .debug_str     0x0000225b      0x1ba /usr/lib/gcc/arm-none-eabi/13.2.1/../../../arm-none-eabi/lib/thumb/v7e-m+fp/hard/libc.a(libc_a-exit.o)
 .debug_str     0x0000225b      0x18d /usr/lib/gcc/arm-none-eabi/13.2.1/../../../arm-none-eabi/lib/thumb/v7e-m+fp/hard/libc.a(libc_a-ctype_.o)
 .debug_str     0x0000225b      0x1d1 /usr/lib/gcc/arm-none-eabi/13.2.1/../../../arm-none-eabi/lib/thumb/v7e-m+fp/hard/libc.a(libc_a-atexit.o)
 .debug_str     0x0000225b      0x4e2 /usr/lib/gcc/arm-none-eabi/13.2.1/../../../arm-none-eabi/lib/thumb/v7e-m+fp/hard/libc.a(libc_a-printf.o)
 .debug_str     0x0000225b      0x1cb /usr/lib/gcc/arm-none-eabi/13.2.1/../../../arm-none-eabi/lib/thumb/v7e-m+fp/hard/libc.a(libc_a-fini.o)
 .debug_str     0x0000225b      0x4b7 /usr/lib/gcc/arm-none-eabi/13.2.1/../../../arm-none-eabi/lib/thumb/v7e-m+fp/hard/libc.a(libc_a-fwalk.o)
 .debug_str     0x0000225b      0x91e /usr/lib/gcc/arm-none-eabi/13.2.1/../../../arm-none-eabi/lib/thumb/v7e-m+fp/hard/libc.a(libc_a-vfprintf.o)
 .debug_str     0x0000225b       0x99 /usr/lib/gcc/arm-none-eabi/13.2.1/../../../arm-none-eabi/lib/thumb/v7e-m+fp/hard/libc.a(libc_a-memchr.o)
 .debug_str     0x0000225b      0x52e /usr/lib/gcc/arm-none-eabi/13.2.1/../../../arm-none-eabi/lib/thumb/v7e-m+fp/hard/libc.a(libc_a-fflush.o)
 .debug_str     0x0000225b      0x50c /usr/lib/gcc/arm-none-eabi/13.2.1/../../../arm-none-eabi/lib/thumb/v7e-m+fp/hard/libc.a(libc_a-setvbuf.o)
 .debug_str     0x0000225b      0x6cf /usr/lib/gcc/arm-none-eabi/13.2.1/../../../arm-none-eabi/lib/thumb/v7e-m+fp/hard/libc.a(libc_a-mallocr.o)
 .debug_str     0x0000225b      0x87f /usr/lib/gcc/arm-none-eabi/13.2.1/../../../arm-none-eabi/lib/thumb/v7e-m+fp/hard/libc.a(libc_a-dtoa.o)
 .debug_str     0x0000225b      0x4d8 /usr/lib/gcc/arm-none-eabi/13.2.1/../../../arm-none-eabi/lib/thumb/v7e-m+fp/hard/libc.a(libc_a-wsetup.o)
 .debug_str     0x0000225b      0x617 /usr/lib/gcc/arm-none-eabi/13.2.1/../../../arm-none-eabi/lib/thumb/v7e-m+fp/hard/libc.a(libc_a-freer.o)
 .debug_str     0x0000225b      0x506 /usr/lib/gcc/arm-none-eabi/13.2.1/../../../arm-none-eabi/lib/thumb/v7e-m+fp/hard/libc.a(libc_a-fclose.o)
 .debug_str     0x0000225b      0x25e /usr/lib/gcc/arm-none-eabi/13.2.1/../../../arm-none-eabi/lib/thumb/v7e-m+fp/hard/libc.a(libc_a-__call_atexit.o)
 .debug_str     0x0000225b      0x4cc /usr/lib/gcc/arm-none-eabi/13.2.1/../../../arm-none-eabi/lib/thumb/v7e-m+fp/hard/libc.a(libc_a-malloc.o)
 .debug_str     0x0000225b      0x19d /usr/lib/gcc/arm-none-eabi/13.2.1/../../../arm-none-eabi/lib/thumb/v7e-m+fp/hard/libc.a(libc_a-sysconf.o)
 .debug_str     0x0000225b      0x514 /usr/lib/gcc/arm-none-eabi/13.2.1/../../../arm-none-eabi/lib/thumb/v7e-m+fp/hard/libc.a(libc_a-stdio.o)
 .debug_str     0x0000225b      0x23c /usr/lib/gcc/arm-none-eabi/13.2.1/../../../arm-none-eabi/lib/thumb/v7e-m+fp/hard/libc.a(libc_a-__atexit.o)
 .debug_str     0x0000225b      0x4ad /usr/lib/gcc/arm-none-eabi/13.2.1/../../../arm-none-eabi/lib/thumb/v7e-m+fp/hard/libc.a(libc_a-writer.o)
 .debug_str     0x0000225b      0x4c5 /usr/lib/gcc/arm-none-eabi/13.2.1/../../../arm-none-eabi/lib/thumb/v7e-m+fp/hard/libc.a(libc_a-mlock.o)
 .debug_str     0x0000225b      0x4b0 /usr/lib/gcc/arm-none-eabi/13.2.1/../../../arm-none-eabi/lib/thumb/v7e-m+fp/hard/libc.a(libc_a-sbrkr.o)
 .debug_str     0x0000225b      0x49d /usr/lib/gcc/arm-none-eabi/13.2.1/../../../arm-none-eabi/lib/thumb/v7e-m+fp/hard/libc.a(libc_a-closer.o)
 .debug_str     0x0000225b      0x4f0 /usr/lib/gcc/arm-none-eabi/13.2.1/../../../arm-none-eabi/lib/thumb/v7e-m+fp/hard/libc.a(libc_a-sprint_r.o)
 .debug_str     0x0000225b      0x4e0 /usr/lib/gcc/arm-none-eabi/13.2.1/../../../arm-none-eabi/lib/thumb/v7e-m+fp/hard/libc.a(libc_a-assert.o)
 .debug_str     0x0000225b      0x7bd /usr/lib/gcc/arm-none-eabi/13.2.1/../../../arm-none-eabi/lib/thumb/v7e-m+fp/hard/libc.a(libc_a-mprec.o)
 .debug_str     0x0000225b      0x6ed /usr/lib/gcc/arm-none-eabi/13.2.1/../../../arm-none-eabi/lib/thumb/v7e-m+fp/hard/libc.a(libc_a-localeconv.o)
 .debug_str     0x0000225b      0x63a /usr/lib/gcc/arm-none-eabi/13.2.1/../../../arm-none-eabi/lib/thumb/v7e-m+fp/hard/libc.a(libc_a-makebuf.o)
 .debug_str     0x0000225b      0x726 /usr/lib/gcc/arm-none-eabi/13.2.1/../../../arm-none-eabi/lib/thumb/v7e-m+fp/hard/libc.a(libc_a-locale.o)
 .debug_str     0x0000225b      0x6cd /usr/lib/gcc/arm-none-eabi/13.2.1/../../../arm-none-eabi/lib/thumb/v7e-m+fp/hard/libc.a(libc_a-mbtowc_r.o)
 .debug_str     0x0000225b      0x4a1 /usr/lib/gcc/arm-none-eabi/13.2.1/../../../arm-none-eabi/lib/thumb/v7e-m+fp/hard/libc.a(libc_a-errno.o)
 .debug_str     0x0000225b      0x197 /usr/lib/gcc/arm-none-eabi/13.2.1/../../../arm-none-eabi/lib/thumb/v7e-m+fp/hard/libc.a(libc_a-abort.o)
 .debug_str     0x0000225b      0x4f9 /usr/lib/gcc/arm-none-eabi/13.2.1/../../../arm-none-eabi/lib/thumb/v7e-m+fp/hard/libc.a(libc_a-callocr.o)
 .debug_str     0x0000225b      0x4ab /usr/lib/gcc/arm-none-eabi/13.2.1/../../../arm-none-eabi/lib/thumb/v7e-m+fp/hard/libc.a(libc_a-readr.o)
 .debug_str     0x0000225b      0x4e9 /usr/lib/gcc/arm-none-eabi/13.2.1/../../../arm-none-eabi/lib/thumb/v7e-m+fp/hard/libc.a(libc_a-fiprintf.o)
 .debug_str     0x0000225b      0x6d4 /usr/lib/gcc/arm-none-eabi/13.2.1/../../../arm-none-eabi/lib/thumb/v7e-m+fp/hard/libc.a(libc_a-wctomb_r.o)
 .debug_str     0x0000225b      0x4ab /usr/lib/gcc/arm-none-eabi/13.2.1/../../../arm-none-eabi/lib/thumb/v7e-m+fp/hard/libc.a(libc_a-lseekr.o)
 .debug_str     0x0000225b      0x4c6 /usr/lib/gcc/arm-none-eabi/13.2.1/../../../arm-none-eabi/lib/thumb/v7e-m+fp/hard/libc.a(libc_a-reent.o)
 .debug_str     0x0000225b      0x5ef /usr/lib/gcc/arm-none-eabi/13.2.1/../../../arm-none-eabi/lib/thumb/v7e-m+fp/hard/libc.a(libc_a-fstatr.o)
 .debug_str     0x0000225b      0x4a7 /usr/lib/gcc/arm-none-eabi/13.2.1/../../../arm-none-eabi/lib/thumb/v7e-m+fp/hard/libc.a(libc_a-isattyr.o)
 .debug_str     0x0000225b      0x54b /usr/lib/gcc/arm-none-eabi/13.2.1/../../../arm-none-eabi/lib/thumb/v7e-m+fp/hard/libc.a(libc_a-fvwrite.o)
 .debug_str     0x0000225b      0x52e /usr/lib/gcc/arm-none-eabi/13.2.1/../../../arm-none-eabi/lib/thumb/v7e-m+fp/hard/libc.a(libc_a-signal.o)
 .debug_str     0x0000225b      0x4c3 /usr/lib/gcc/arm-none-eabi/13.2.1/../../../arm-none-eabi/lib/thumb/v7e-m+fp/hard/libc.a(libc_a-signalr.o)
 .debug_str     0x0000225b      0x1c7 /usr/lib/gcc/arm-none-eabi/13.2.1/../../../arm-none-eabi/lib/thumb/v7e-m+fp/hard/libc.a(libc_a-memmove.o)
 .debug_str     0x0000225b      0x834 /usr/lib/gcc/arm-none-eabi/13.2.1/../../../arm-none-eabi/lib/thumb/v7e-m+fp/hard/libc.a(libc_a-vfiprintf.o)
 .debug_str     0x0000225b      0x59a /usr/lib/gcc/arm-none-eabi/13.2.1/../../../arm-none-eabi/lib/thumb/v7e-m+fp/hard/libc.a(libc_a-reallocr.o)
 .debug_str     0x0000225b      0x198 /usr/lib/gcc/arm-none-eabi/13.2.1/../../../arm-none-eabi/lib/thumb/v7e-m+fp/hard/libnosys.a(close.o)
 .debug_str     0x0000225b      0x2e4 /usr/lib/gcc/arm-none-eabi/13.2.1/../../../arm-none-eabi/lib/thumb/v7e-m+fp/hard/libnosys.a(fstat.o)
 .debug_str     0x0000225b      0x194 /usr/lib/gcc/arm-none-eabi/13.2.1/../../../arm-none-eabi/lib/thumb/v7e-m+fp/hard/libnosys.a(getpid.o)
 .debug_str     0x0000225b      0x199 /usr/lib/gcc/arm-none-eabi/13.2.1/../../../arm-none-eabi/lib/thumb/v7e-m+fp/hard/libnosys.a(isatty.o)
 .debug_str     0x0000225b      0x18e /usr/lib/gcc/arm-none-eabi/13.2.1/../../../arm-none-eabi/lib/thumb/v7e-m+fp/hard/libnosys.a(kill.o)
 .debug_str     0x0000225b      0x196 /usr/lib/gcc/arm-none-eabi/13.2.1/../../../arm-none-eabi/lib/thumb/v7e-m+fp/hard/libnosys.a(lseek.o)
 .debug_str     0x0000225b      0x11d /usr/lib/gcc/arm-none-eabi/13.2.1/../../../arm-none-eabi/lib/thumb/v7e-m+fp/hard/libnosys.a(sbrk.o)
 .debug_str     0x0000225b      0x169 /usr/lib/gcc/arm-none-eabi/13.2.1/../../../arm-none-eabi/lib/thumb/v7e-m+fp/hard/libnosys.a(_exit.o)
 .debug_str     0x0000225b      0x154 /usr/lib/gcc/arm-none-eabi/13.2.1/thumb/v7e-m+fp/hard/libgcc.a(_arm_addsubdf3.o)
 .debug_str     0x0000225b       0xd4 /usr/lib/gcc/arm-none-eabi/13.2.1/thumb/v7e-m+fp/hard/libgcc.a(_arm_muldivdf3.o)
 .debug_str     0x0000225b      0x15d /usr/lib/gcc/arm-none-eabi/13.2.1/thumb/v7e-m+fp/hard/libgcc.a(_arm_cmpdf2.o)
 .debug_str     0x0000225b       0xc2 /usr/lib/gcc/arm-none-eabi/13.2.1/thumb/v7e-m+fp/hard/libgcc.a(_arm_unorddf2.o)
 .debug_str     0x0000225b       0xbf /usr/lib/gcc/arm-none-eabi/13.2.1/thumb/v7e-m+fp/hard/libgcc.a(_arm_fixdfsi.o)

.debug_loclists
                0x00000000     0xbc1b
 .debug_loclists
                0x00000000      0x1c2 /usr/lib/gcc/arm-none-eabi/13.2.1/../../../arm-none-eabi/lib/thumb/v7e-m+fp/hard/libc.a(libc_a-memset.o)
 .debug_loclists
                0x000001c2       0x3c /usr/lib/gcc/arm-none-eabi/13.2.1/../../../arm-none-eabi/lib/thumb/v7e-m+fp/hard/libc.a(libc_a-setbuf.o)
 .debug_loclists
                0x000001fe       0xd6 /usr/lib/gcc/arm-none-eabi/13.2.1/../../../arm-none-eabi/lib/thumb/v7e-m+fp/hard/libc.a(libc_a-memcmp.o)
 .debug_loclists
                0x000002d4       0x65 /usr/lib/gcc/arm-none-eabi/13.2.1/../../../arm-none-eabi/lib/thumb/v7e-m+fp/hard/libc.a(libc_a-init.o)
 .debug_loclists
                0x00000339      0x1d0 /usr/lib/gcc/arm-none-eabi/13.2.1/../../../arm-none-eabi/lib/thumb/v7e-m+fp/hard/libc.a(libc_a-findfp.o)
 .debug_loclists
                0x00000509       0x1b /usr/lib/gcc/arm-none-eabi/13.2.1/../../../arm-none-eabi/lib/thumb/v7e-m+fp/hard/libc.a(libc_a-exit.o)
 .debug_loclists
                0x00000524       0x2b /usr/lib/gcc/arm-none-eabi/13.2.1/../../../arm-none-eabi/lib/thumb/v7e-m+fp/hard/libc.a(libc_a-atexit.o)
 .debug_loclists
                0x0000054f       0x3c /usr/lib/gcc/arm-none-eabi/13.2.1/../../../arm-none-eabi/lib/thumb/v7e-m+fp/hard/libc.a(libc_a-printf.o)
 .debug_loclists
                0x0000058b       0x42 /usr/lib/gcc/arm-none-eabi/13.2.1/../../../arm-none-eabi/lib/thumb/v7e-m+fp/hard/libc.a(libc_a-fini.o)
 .debug_loclists
                0x000005cd       0x87 /usr/lib/gcc/arm-none-eabi/13.2.1/../../../arm-none-eabi/lib/thumb/v7e-m+fp/hard/libc.a(libc_a-fwalk.o)
 .debug_loclists
                0x00000654     0x23f1 /usr/lib/gcc/arm-none-eabi/13.2.1/../../../arm-none-eabi/lib/thumb/v7e-m+fp/hard/libc.a(libc_a-vfprintf.o)
 .debug_loclists
                0x00002a45      0x2a4 /usr/lib/gcc/arm-none-eabi/13.2.1/../../../arm-none-eabi/lib/thumb/v7e-m+fp/hard/libc.a(libc_a-fflush.o)
 .debug_loclists
                0x00002ce9      0x150 /usr/lib/gcc/arm-none-eabi/13.2.1/../../../arm-none-eabi/lib/thumb/v7e-m+fp/hard/libc.a(libc_a-setvbuf.o)
 .debug_loclists
                0x00002e39      0xa4c /usr/lib/gcc/arm-none-eabi/13.2.1/../../../arm-none-eabi/lib/thumb/v7e-m+fp/hard/libc.a(libc_a-mallocr.o)
 .debug_loclists
                0x00003885     0x20be /usr/lib/gcc/arm-none-eabi/13.2.1/../../../arm-none-eabi/lib/thumb/v7e-m+fp/hard/libc.a(libc_a-dtoa.o)
 .debug_loclists
                0x00005943       0x61 /usr/lib/gcc/arm-none-eabi/13.2.1/../../../arm-none-eabi/lib/thumb/v7e-m+fp/hard/libc.a(libc_a-wsetup.o)
 .debug_loclists
                0x000059a4      0x46a /usr/lib/gcc/arm-none-eabi/13.2.1/../../../arm-none-eabi/lib/thumb/v7e-m+fp/hard/libc.a(libc_a-freer.o)
 .debug_loclists
                0x00005e0e       0xf7 /usr/lib/gcc/arm-none-eabi/13.2.1/../../../arm-none-eabi/lib/thumb/v7e-m+fp/hard/libc.a(libc_a-fclose.o)
 .debug_loclists
                0x00005f05      0x102 /usr/lib/gcc/arm-none-eabi/13.2.1/../../../arm-none-eabi/lib/thumb/v7e-m+fp/hard/libc.a(libc_a-__call_atexit.o)
 .debug_loclists
                0x00006007       0x4a /usr/lib/gcc/arm-none-eabi/13.2.1/../../../arm-none-eabi/lib/thumb/v7e-m+fp/hard/libc.a(libc_a-malloc.o)
 .debug_loclists
                0x00006051       0x3b /usr/lib/gcc/arm-none-eabi/13.2.1/../../../arm-none-eabi/lib/thumb/v7e-m+fp/hard/libc.a(libc_a-sysconf.o)
 .debug_loclists
                0x0000608c      0x23b /usr/lib/gcc/arm-none-eabi/13.2.1/../../../arm-none-eabi/lib/thumb/v7e-m+fp/hard/libc.a(libc_a-stdio.o)
 .debug_loclists
                0x000062c7       0xe6 /usr/lib/gcc/arm-none-eabi/13.2.1/../../../arm-none-eabi/lib/thumb/v7e-m+fp/hard/libc.a(libc_a-__atexit.o)
 .debug_loclists
                0x000063ad       0x9e /usr/lib/gcc/arm-none-eabi/13.2.1/../../../arm-none-eabi/lib/thumb/v7e-m+fp/hard/libc.a(libc_a-writer.o)
 .debug_loclists
                0x0000644b       0x4b /usr/lib/gcc/arm-none-eabi/13.2.1/../../../arm-none-eabi/lib/thumb/v7e-m+fp/hard/libc.a(libc_a-sbrkr.o)
 .debug_loclists
                0x00006496       0x4b /usr/lib/gcc/arm-none-eabi/13.2.1/../../../arm-none-eabi/lib/thumb/v7e-m+fp/hard/libc.a(libc_a-closer.o)
 .debug_loclists
                0x000064e1       0x72 /usr/lib/gcc/arm-none-eabi/13.2.1/../../../arm-none-eabi/lib/thumb/v7e-m+fp/hard/libc.a(libc_a-sprint_r.o)
 .debug_loclists
                0x00006553       0xfa /usr/lib/gcc/arm-none-eabi/13.2.1/../../../arm-none-eabi/lib/thumb/v7e-m+fp/hard/libc.a(libc_a-assert.o)
 .debug_loclists
                0x0000664d     0x20bc /usr/lib/gcc/arm-none-eabi/13.2.1/../../../arm-none-eabi/lib/thumb/v7e-m+fp/hard/libc.a(libc_a-mprec.o)
 .debug_loclists
                0x00008709       0x48 /usr/lib/gcc/arm-none-eabi/13.2.1/../../../arm-none-eabi/lib/thumb/v7e-m+fp/hard/libc.a(libc_a-localeconv.o)
 .debug_loclists
                0x00008751      0x25e /usr/lib/gcc/arm-none-eabi/13.2.1/../../../arm-none-eabi/lib/thumb/v7e-m+fp/hard/libc.a(libc_a-makebuf.o)
 .debug_loclists
                0x000089af      0x151 /usr/lib/gcc/arm-none-eabi/13.2.1/../../../arm-none-eabi/lib/thumb/v7e-m+fp/hard/libc.a(libc_a-locale.o)
 .debug_loclists
                0x00008b00      0x158 /usr/lib/gcc/arm-none-eabi/13.2.1/../../../arm-none-eabi/lib/thumb/v7e-m+fp/hard/libc.a(libc_a-mbtowc_r.o)
 .debug_loclists
                0x00008c58      0x1da /usr/lib/gcc/arm-none-eabi/13.2.1/../../../arm-none-eabi/lib/thumb/v7e-m+fp/hard/libc.a(libc_a-callocr.o)
 .debug_loclists
                0x00008e32       0x9e /usr/lib/gcc/arm-none-eabi/13.2.1/../../../arm-none-eabi/lib/thumb/v7e-m+fp/hard/libc.a(libc_a-readr.o)
 .debug_loclists
                0x00008ed0       0x6b /usr/lib/gcc/arm-none-eabi/13.2.1/../../../arm-none-eabi/lib/thumb/v7e-m+fp/hard/libc.a(libc_a-fiprintf.o)
 .debug_loclists
                0x00008f3b       0xd9 /usr/lib/gcc/arm-none-eabi/13.2.1/../../../arm-none-eabi/lib/thumb/v7e-m+fp/hard/libc.a(libc_a-wctomb_r.o)
 .debug_loclists
                0x00009014       0x9e /usr/lib/gcc/arm-none-eabi/13.2.1/../../../arm-none-eabi/lib/thumb/v7e-m+fp/hard/libc.a(libc_a-lseekr.o)
 .debug_loclists
                0x000090b2       0x6e /usr/lib/gcc/arm-none-eabi/13.2.1/../../../arm-none-eabi/lib/thumb/v7e-m+fp/hard/libc.a(libc_a-reent.o)
 .debug_loclists
                0x00009120       0x71 /usr/lib/gcc/arm-none-eabi/13.2.1/../../../arm-none-eabi/lib/thumb/v7e-m+fp/hard/libc.a(libc_a-fstatr.o)
 .debug_loclists
                0x00009191       0x4b /usr/lib/gcc/arm-none-eabi/13.2.1/../../../arm-none-eabi/lib/thumb/v7e-m+fp/hard/libc.a(libc_a-isattyr.o)
 .debug_loclists
                0x000091dc      0x42a /usr/lib/gcc/arm-none-eabi/13.2.1/../../../arm-none-eabi/lib/thumb/v7e-m+fp/hard/libc.a(libc_a-fvwrite.o)
 .debug_loclists
                0x00009606      0x59c /usr/lib/gcc/arm-none-eabi/13.2.1/../../../arm-none-eabi/lib/thumb/v7e-m+fp/hard/libc.a(libc_a-signal.o)
 .debug_loclists
                0x00009ba2       0x89 /usr/lib/gcc/arm-none-eabi/13.2.1/../../../arm-none-eabi/lib/thumb/v7e-m+fp/hard/libc.a(libc_a-signalr.o)
 .debug_loclists
                0x00009c2b      0x233 /usr/lib/gcc/arm-none-eabi/13.2.1/../../../arm-none-eabi/lib/thumb/v7e-m+fp/hard/libc.a(libc_a-memmove.o)
 .debug_loclists
                0x00009e5e     0x1124 /usr/lib/gcc/arm-none-eabi/13.2.1/../../../arm-none-eabi/lib/thumb/v7e-m+fp/hard/libc.a(libc_a-vfiprintf.o)
 .debug_loclists
                0x0000af82      0xb89 /usr/lib/gcc/arm-none-eabi/13.2.1/../../../arm-none-eabi/lib/thumb/v7e-m+fp/hard/libc.a(libc_a-reallocr.o)
 .debug_loclists
                0x0000bb0b       0x24 /usr/lib/gcc/arm-none-eabi/13.2.1/../../../arm-none-eabi/lib/thumb/v7e-m+fp/hard/libnosys.a(close.o)
 .debug_loclists
                0x0000bb2f       0x24 /usr/lib/gcc/arm-none-eabi/13.2.1/../../../arm-none-eabi/lib/thumb/v7e-m+fp/hard/libnosys.a(fstat.o)
 .debug_loclists
                0x0000bb53       0x24 /usr/lib/gcc/arm-none-eabi/13.2.1/../../../arm-none-eabi/lib/thumb/v7e-m+fp/hard/libnosys.a(isatty.o)
 .debug_loclists
                0x0000bb77       0x24 /usr/lib/gcc/arm-none-eabi/13.2.1/../../../arm-none-eabi/lib/thumb/v7e-m+fp/hard/libnosys.a(kill.o)
 .debug_loclists
                0x0000bb9b       0x3c /usr/lib/gcc/arm-none-eabi/13.2.1/../../../arm-none-eabi/lib/thumb/v7e-m+fp/hard/libnosys.a(lseek.o)
 .debug_loclists
                0x0000bbd7       0x30 /usr/lib/gcc/arm-none-eabi/13.2.1/../../../arm-none-eabi/lib/thumb/v7e-m+fp/hard/libnosys.a(sbrk.o)
 .debug_loclists
                0x0000bc07       0x14 /usr/lib/gcc/arm-none-eabi/13.2.1/../../../arm-none-eabi/lib/thumb/v7e-m+fp/hard/libnosys.a(_exit.o)

.debug_frame    0x00000000     0x1428
 .debug_frame   0x00000000       0x2c /usr/lib/gcc/arm-none-eabi/13.2.1/../../../arm-none-eabi/lib/thumb/v7e-m+fp/hard/libc.a(libc_a-memset.o)
 .debug_frame   0x0000002c       0x20 /usr/lib/gcc/arm-none-eabi/13.2.1/../../../arm-none-eabi/lib/thumb/v7e-m+fp/hard/libc.a(libc_a-setbuf.o)
 .debug_frame   0x0000004c       0x34 /usr/lib/gcc/arm-none-eabi/13.2.1/../../../arm-none-eabi/lib/thumb/v7e-m+fp/hard/libc.a(libc_a-memcmp.o)
 .debug_frame   0x00000080       0x2c /usr/lib/gcc/arm-none-eabi/13.2.1/../../../arm-none-eabi/lib/thumb/v7e-m+fp/hard/libc.a(libc_a-init.o)
 .debug_frame   0x000000ac       0xf4 /usr/lib/gcc/arm-none-eabi/13.2.1/../../../arm-none-eabi/lib/thumb/v7e-m+fp/hard/libc.a(libc_a-findfp.o)
 .debug_frame   0x000001a0       0x28 /usr/lib/gcc/arm-none-eabi/13.2.1/../../../arm-none-eabi/lib/thumb/v7e-m+fp/hard/libc.a(libc_a-exit.o)
 .debug_frame   0x000001c8       0x20 /usr/lib/gcc/arm-none-eabi/13.2.1/../../../arm-none-eabi/lib/thumb/v7e-m+fp/hard/libc.a(libc_a-atexit.o)
 .debug_frame   0x000001e8       0x74 /usr/lib/gcc/arm-none-eabi/13.2.1/../../../arm-none-eabi/lib/thumb/v7e-m+fp/hard/libc.a(libc_a-printf.o)
 .debug_frame   0x0000025c       0x34 /usr/lib/gcc/arm-none-eabi/13.2.1/../../../arm-none-eabi/lib/thumb/v7e-m+fp/hard/libc.a(libc_a-fini.o)
 .debug_frame   0x00000290       0x34 /usr/lib/gcc/arm-none-eabi/13.2.1/../../../arm-none-eabi/lib/thumb/v7e-m+fp/hard/libc.a(libc_a-fwalk.o)
 .debug_frame   0x000002c4       0x94 /usr/lib/gcc/arm-none-eabi/13.2.1/../../../arm-none-eabi/lib/thumb/v7e-m+fp/hard/libc.a(libc_a-vfprintf.o)
 .debug_frame   0x00000358       0x88 /usr/lib/gcc/arm-none-eabi/13.2.1/../../../arm-none-eabi/lib/thumb/v7e-m+fp/hard/libc.a(libc_a-fflush.o)
 .debug_frame   0x000003e0       0x44 /usr/lib/gcc/arm-none-eabi/13.2.1/../../../arm-none-eabi/lib/thumb/v7e-m+fp/hard/libc.a(libc_a-setvbuf.o)
 .debug_frame   0x00000424       0x48 /usr/lib/gcc/arm-none-eabi/13.2.1/../../../arm-none-eabi/lib/thumb/v7e-m+fp/hard/libc.a(libc_a-mallocr.o)
 .debug_frame   0x0000046c       0x84 /usr/lib/gcc/arm-none-eabi/13.2.1/../../../arm-none-eabi/lib/thumb/v7e-m+fp/hard/libc.a(libc_a-dtoa.o)
 .debug_frame   0x000004f0       0x2c /usr/lib/gcc/arm-none-eabi/13.2.1/../../../arm-none-eabi/lib/thumb/v7e-m+fp/hard/libc.a(libc_a-wsetup.o)
 .debug_frame   0x0000051c       0x78 /usr/lib/gcc/arm-none-eabi/13.2.1/../../../arm-none-eabi/lib/thumb/v7e-m+fp/hard/libc.a(libc_a-freer.o)
 .debug_frame   0x00000594       0x3c /usr/lib/gcc/arm-none-eabi/13.2.1/../../../arm-none-eabi/lib/thumb/v7e-m+fp/hard/libc.a(libc_a-fclose.o)
 .debug_frame   0x000005d0       0x54 /usr/lib/gcc/arm-none-eabi/13.2.1/../../../arm-none-eabi/lib/thumb/v7e-m+fp/hard/libc.a(libc_a-__call_atexit.o)
 .debug_frame   0x00000624       0x30 /usr/lib/gcc/arm-none-eabi/13.2.1/../../../arm-none-eabi/lib/thumb/v7e-m+fp/hard/libc.a(libc_a-malloc.o)
 .debug_frame   0x00000654       0x28 /usr/lib/gcc/arm-none-eabi/13.2.1/../../../arm-none-eabi/lib/thumb/v7e-m+fp/hard/libc.a(libc_a-sysconf.o)
 .debug_frame   0x0000067c       0x8c /usr/lib/gcc/arm-none-eabi/13.2.1/../../../arm-none-eabi/lib/thumb/v7e-m+fp/hard/libc.a(libc_a-stdio.o)
 .debug_frame   0x00000708       0x34 /usr/lib/gcc/arm-none-eabi/13.2.1/../../../arm-none-eabi/lib/thumb/v7e-m+fp/hard/libc.a(libc_a-__atexit.o)
 .debug_frame   0x0000073c       0x2c /usr/lib/gcc/arm-none-eabi/13.2.1/../../../arm-none-eabi/lib/thumb/v7e-m+fp/hard/libc.a(libc_a-writer.o)
 .debug_frame   0x00000768       0x30 /usr/lib/gcc/arm-none-eabi/13.2.1/../../../arm-none-eabi/lib/thumb/v7e-m+fp/hard/libc.a(libc_a-mlock.o)
 .debug_frame   0x00000798       0x2c /usr/lib/gcc/arm-none-eabi/13.2.1/../../../arm-none-eabi/lib/thumb/v7e-m+fp/hard/libc.a(libc_a-sbrkr.o)
 .debug_frame   0x000007c4       0x2c /usr/lib/gcc/arm-none-eabi/13.2.1/../../../arm-none-eabi/lib/thumb/v7e-m+fp/hard/libc.a(libc_a-closer.o)
 .debug_frame   0x000007f0       0x28 /usr/lib/gcc/arm-none-eabi/13.2.1/../../../arm-none-eabi/lib/thumb/v7e-m+fp/hard/libc.a(libc_a-sprint_r.o)
 .debug_frame   0x00000818       0x40 /usr/lib/gcc/arm-none-eabi/13.2.1/../../../arm-none-eabi/lib/thumb/v7e-m+fp/hard/libc.a(libc_a-assert.o)
 .debug_frame   0x00000858      0x288 /usr/lib/gcc/arm-none-eabi/13.2.1/../../../arm-none-eabi/lib/thumb/v7e-m+fp/hard/libc.a(libc_a-mprec.o)
 .debug_frame   0x00000ae0       0x40 /usr/lib/gcc/arm-none-eabi/13.2.1/../../../arm-none-eabi/lib/thumb/v7e-m+fp/hard/libc.a(libc_a-localeconv.o)
 .debug_frame   0x00000b20       0x70 /usr/lib/gcc/arm-none-eabi/13.2.1/../../../arm-none-eabi/lib/thumb/v7e-m+fp/hard/libc.a(libc_a-makebuf.o)
 .debug_frame   0x00000b90       0x68 /usr/lib/gcc/arm-none-eabi/13.2.1/../../../arm-none-eabi/lib/thumb/v7e-m+fp/hard/libc.a(libc_a-locale.o)
 .debug_frame   0x00000bf8       0x4c /usr/lib/gcc/arm-none-eabi/13.2.1/../../../arm-none-eabi/lib/thumb/v7e-m+fp/hard/libc.a(libc_a-mbtowc_r.o)
 .debug_frame   0x00000c44       0x20 /usr/lib/gcc/arm-none-eabi/13.2.1/../../../arm-none-eabi/lib/thumb/v7e-m+fp/hard/libc.a(libc_a-errno.o)
 .debug_frame   0x00000c64       0x28 /usr/lib/gcc/arm-none-eabi/13.2.1/../../../arm-none-eabi/lib/thumb/v7e-m+fp/hard/libc.a(libc_a-abort.o)
 .debug_frame   0x00000c8c       0x2c /usr/lib/gcc/arm-none-eabi/13.2.1/../../../arm-none-eabi/lib/thumb/v7e-m+fp/hard/libc.a(libc_a-callocr.o)
 .debug_frame   0x00000cb8       0x2c /usr/lib/gcc/arm-none-eabi/13.2.1/../../../arm-none-eabi/lib/thumb/v7e-m+fp/hard/libc.a(libc_a-readr.o)
 .debug_frame   0x00000ce4       0x70 /usr/lib/gcc/arm-none-eabi/13.2.1/../../../arm-none-eabi/lib/thumb/v7e-m+fp/hard/libc.a(libc_a-fiprintf.o)
 .debug_frame   0x00000d54       0x3c /usr/lib/gcc/arm-none-eabi/13.2.1/../../../arm-none-eabi/lib/thumb/v7e-m+fp/hard/libc.a(libc_a-wctomb_r.o)
 .debug_frame   0x00000d90       0x2c /usr/lib/gcc/arm-none-eabi/13.2.1/../../../arm-none-eabi/lib/thumb/v7e-m+fp/hard/libc.a(libc_a-lseekr.o)
 .debug_frame   0x00000dbc       0x3c /usr/lib/gcc/arm-none-eabi/13.2.1/../../../arm-none-eabi/lib/thumb/v7e-m+fp/hard/libc.a(libc_a-reent.o)
 .debug_frame   0x00000df8       0x2c /usr/lib/gcc/arm-none-eabi/13.2.1/../../../arm-none-eabi/lib/thumb/v7e-m+fp/hard/libc.a(libc_a-fstatr.o)
 .debug_frame   0x00000e24       0x2c /usr/lib/gcc/arm-none-eabi/13.2.1/../../../arm-none-eabi/lib/thumb/v7e-m+fp/hard/libc.a(libc_a-isattyr.o)
 .debug_frame   0x00000e50       0x64 /usr/lib/gcc/arm-none-eabi/13.2.1/../../../arm-none-eabi/lib/thumb/v7e-m+fp/hard/libc.a(libc_a-fvwrite.o)
 .debug_frame   0x00000eb4      0x118 /usr/lib/gcc/arm-none-eabi/13.2.1/../../../arm-none-eabi/lib/thumb/v7e-m+fp/hard/libc.a(libc_a-signal.o)
 .debug_frame   0x00000fcc       0x3c /usr/lib/gcc/arm-none-eabi/13.2.1/../../../arm-none-eabi/lib/thumb/v7e-m+fp/hard/libc.a(libc_a-signalr.o)
 .debug_frame   0x00001008       0x40 /usr/lib/gcc/arm-none-eabi/13.2.1/../../../arm-none-eabi/lib/thumb/v7e-m+fp/hard/libc.a(libc_a-memmove.o)
 .debug_frame   0x00001048       0x94 /usr/lib/gcc/arm-none-eabi/13.2.1/../../../arm-none-eabi/lib/thumb/v7e-m+fp/hard/libc.a(libc_a-vfiprintf.o)
 .debug_frame   0x000010dc       0x48 /usr/lib/gcc/arm-none-eabi/13.2.1/../../../arm-none-eabi/lib/thumb/v7e-m+fp/hard/libc.a(libc_a-reallocr.o)
 .debug_frame   0x00001124       0x20 /usr/lib/gcc/arm-none-eabi/13.2.1/../../../arm-none-eabi/lib/thumb/v7e-m+fp/hard/libnosys.a(close.o)
 .debug_frame   0x00001144       0x20 /usr/lib/gcc/arm-none-eabi/13.2.1/../../../arm-none-eabi/lib/thumb/v7e-m+fp/hard/libnosys.a(fstat.o)
 .debug_frame   0x00001164       0x20 /usr/lib/gcc/arm-none-eabi/13.2.1/../../../arm-none-eabi/lib/thumb/v7e-m+fp/hard/libnosys.a(getpid.o)
 .debug_frame   0x00001184       0x20 /usr/lib/gcc/arm-none-eabi/13.2.1/../../../arm-none-eabi/lib/thumb/v7e-m+fp/hard/libnosys.a(isatty.o)
 .debug_frame   0x000011a4       0x20 /usr/lib/gcc/arm-none-eabi/13.2.1/../../../arm-none-eabi/lib/thumb/v7e-m+fp/hard/libnosys.a(kill.o)
 .debug_frame   0x000011c4       0x20 /usr/lib/gcc/arm-none-eabi/13.2.1/../../../arm-none-eabi/lib/thumb/v7e-m+fp/hard/libnosys.a(lseek.o)
 .debug_frame   0x000011e4       0x20 /usr/lib/gcc/arm-none-eabi/13.2.1/../../../arm-none-eabi/lib/thumb/v7e-m+fp/hard/libnosys.a(sbrk.o)
 .debug_frame   0x00001204       0x20 /usr/lib/gcc/arm-none-eabi/13.2.1/../../../arm-none-eabi/lib/thumb/v7e-m+fp/hard/libnosys.a(_exit.o)
 .debug_frame   0x00001224       0xac /usr/lib/gcc/arm-none-eabi/13.2.1/thumb/v7e-m+fp/hard/libgcc.a(_arm_addsubdf3.o)
 .debug_frame   0x000012d0       0x50 /usr/lib/gcc/arm-none-eabi/13.2.1/thumb/v7e-m+fp/hard/libgcc.a(_arm_muldivdf3.o)
 .debug_frame   0x00001320       0xc4 /usr/lib/gcc/arm-none-eabi/13.2.1/thumb/v7e-m+fp/hard/libgcc.a(_arm_cmpdf2.o)
 .debug_frame   0x000013e4       0x20 /usr/lib/gcc/arm-none-eabi/13.2.1/thumb/v7e-m+fp/hard/libgcc.a(_arm_unorddf2.o)
 .debug_frame   0x00001404       0x24 /usr/lib/gcc/arm-none-eabi/13.2.1/thumb/v7e-m+fp/hard/libgcc.a(_arm_fixdfsi.o)

.debug_rnglists
                0x00000000      0x4f3
 .debug_rnglists
                0x00000000       0x77 /usr/lib/gcc/arm-none-eabi/13.2.1/../../../arm-none-eabi/lib/thumb/v7e-m+fp/hard/libc.a(libc_a-findfp.o)
 .debug_rnglists
                0x00000077       0xde /usr/lib/gcc/arm-none-eabi/13.2.1/../../../arm-none-eabi/lib/thumb/v7e-m+fp/hard/libc.a(libc_a-vfprintf.o)
 .debug_rnglists
                0x00000155       0x59 /usr/lib/gcc/arm-none-eabi/13.2.1/../../../arm-none-eabi/lib/thumb/v7e-m+fp/hard/libc.a(libc_a-fflush.o)
 .debug_rnglists
                0x000001ae       0x18 /usr/lib/gcc/arm-none-eabi/13.2.1/../../../arm-none-eabi/lib/thumb/v7e-m+fp/hard/libc.a(libc_a-setvbuf.o)
 .debug_rnglists
                0x000001c6       0x2b /usr/lib/gcc/arm-none-eabi/13.2.1/../../../arm-none-eabi/lib/thumb/v7e-m+fp/hard/libc.a(libc_a-mallocr.o)
 .debug_rnglists
                0x000001f1       0x27 /usr/lib/gcc/arm-none-eabi/13.2.1/../../../arm-none-eabi/lib/thumb/v7e-m+fp/hard/libc.a(libc_a-dtoa.o)
 .debug_rnglists
                0x00000218       0x1b /usr/lib/gcc/arm-none-eabi/13.2.1/../../../arm-none-eabi/lib/thumb/v7e-m+fp/hard/libc.a(libc_a-wsetup.o)
 .debug_rnglists
                0x00000233       0x1b /usr/lib/gcc/arm-none-eabi/13.2.1/../../../arm-none-eabi/lib/thumb/v7e-m+fp/hard/libc.a(libc_a-fclose.o)
 .debug_rnglists
                0x0000024e       0x3a /usr/lib/gcc/arm-none-eabi/13.2.1/../../../arm-none-eabi/lib/thumb/v7e-m+fp/hard/libc.a(libc_a-__call_atexit.o)
 .debug_rnglists
                0x00000288       0xa8 /usr/lib/gcc/arm-none-eabi/13.2.1/../../../arm-none-eabi/lib/thumb/v7e-m+fp/hard/libc.a(libc_a-mprec.o)
 .debug_rnglists
                0x00000330       0x31 /usr/lib/gcc/arm-none-eabi/13.2.1/../../../arm-none-eabi/lib/thumb/v7e-m+fp/hard/libc.a(libc_a-makebuf.o)
 .debug_rnglists
                0x00000361       0x19 /usr/lib/gcc/arm-none-eabi/13.2.1/../../../arm-none-eabi/lib/thumb/v7e-m+fp/hard/libc.a(libc_a-locale.o)
 .debug_rnglists
                0x0000037a       0x23 /usr/lib/gcc/arm-none-eabi/13.2.1/../../../arm-none-eabi/lib/thumb/v7e-m+fp/hard/libc.a(libc_a-callocr.o)
 .debug_rnglists
                0x0000039d       0x2b /usr/lib/gcc/arm-none-eabi/13.2.1/../../../arm-none-eabi/lib/thumb/v7e-m+fp/hard/libc.a(libc_a-fvwrite.o)
 .debug_rnglists
                0x000003c8       0x65 /usr/lib/gcc/arm-none-eabi/13.2.1/../../../arm-none-eabi/lib/thumb/v7e-m+fp/hard/libc.a(libc_a-signal.o)
 .debug_rnglists
                0x0000042d       0x23 /usr/lib/gcc/arm-none-eabi/13.2.1/../../../arm-none-eabi/lib/thumb/v7e-m+fp/hard/libc.a(libc_a-vfiprintf.o)
 .debug_rnglists
                0x00000450       0xa3 /usr/lib/gcc/arm-none-eabi/13.2.1/../../../arm-none-eabi/lib/thumb/v7e-m+fp/hard/libc.a(libc_a-reallocr.o)
